(dp0
S'limited'
p1
I4
sS'superman'
p2
I9
sS'voleio'
p3
I2
sS'autofurnish'
p4
I3
sS'saver'
p5
I4
sS'dynamic'
p6
I6
sS'all'
p7
I38
sS'yellow'
p8
I146
sS'sleek'
p9
I5
sS'four'
p10
I4
sS'kamasutra'
p11
I2
sS'woods'
p12
I3
sS'sleep'
p13
I6
sS'asian'
p14
I5
sS'hanging'
p15
I12
sS'jug'
p16
I7
sS'captain'
p17
I2
sS'bank'
p18
I52
sS'optical'
p19
I15
sS'trolley'
p20
I4
sS'swag'
p21
I7
sS'feeding'
p22
I7
sS'tancet'
p23
I2
sS'lenco'
p24
I2
sS'jaipur'
p25
I5
sS'paris'
p26
I24
sS'swan'
p27
I26
sS'stylar'
p28
I5
sS'lamere'
p29
I2
sS'opticare'
p30
I2
sS'trousers'
p31
I52
sS'stationery'
p32
I2
sS'lord'
p33
I3
sS'pride'
p34
I9
sS'regalia'
p35
I2
sS'worth'
p36
I4
sS'churidar'
p37
I9
sS'shaving'
p38
I6
sS'updated'
p39
I2
sS'retail'
p40
I2
sS'dollar'
p41
I6
sS'blanket'
p42
I42
sS'hitech'
p43
I3
sS'dell'
p44
I14
sS'kaspersky'
p45
I6
sS'shoot'
p46
I5
sS'tourister'
p47
I8
sS'mania'
p48
I2
sS'leggings'
p49
I47
sS'jack'
p50
I42
sS'wetex'
p51
I5
sS'hdts'
p52
I9
sS'signoraware'
p53
I27
sS'embriodered'
p54
I33
sS'lumia'
p55
I13
sS'kemei'
p56
I4
sS'embroidred'
p57
I2
sS'school'
p58
I14
sS'basics'
p59
I12
sS'jacket'
p60
I166
sS'parrot'
p61
I3
sS'wooden'
p62
I19
sS'laurels'
p63
I14
sS'satchel'
p64
I2
sS'fogg'
p65
I8
sS'red'
p66
I419
sS'livingware'
p67
I5
sS'cms'
p68
I10
sS'triumph'
p69
I2
sS'clothes'
p70
I2
sS'forca'
p71
I2
sS'hotshapers'
p72
I2
sS'paperback'
p73
I4
sS'force'
p74
I6
sS'rrtc'
p75
I5
sS'quilt'
p76
I12
sS'concise'
p77
I2
sS'phones'
p78
I2
sS'almond'
p79
I15
sS'lavender'
p80
I7
sS'pulse'
p81
I5
sS'horn'
p82
I3
sS'chef'
p83
I3
sS'elegant'
p84
I7
sS'oreal'
p85
I8
sS'fabulous'
p86
I4
sS'sls'
p87
I2
sS'chhota'
p88
I3
sS'shining'
p89
I3
sS'blouse'
p90
I15
sS'neo'
p91
I18
sS'shatabdi'
p92
I3
sS'duos'
p93
I3
sS'dohar'
p94
I3
sS'chin'
p95
I2
sS'cooking'
p96
I2
sS'stonic'
p97
I2
sS'liberty'
p98
I10
sS'hydration'
p99
I2
sS'lights'
p100
I8
sS'meizu'
p101
I3
sS'fossil'
p102
I14
sS'cars'
p103
I4
sS'new'
p104
I93
sS'net'
p105
I59
sS'eves'
p106
I2
sS'disney'
p107
I9
sS'mee'
p108
I16
sS'specialist'
p109
I2
sS'hero'
p110
I4
sS'ruhaans'
p111
I3
sS'festive'
p112
I13
sS'mel'
p113
I2
sS'men'
p114
I890
sS'jasmine'
p115
I2
sS'pluto'
p116
I4
sS'teeforme'
p117
I2
sS'protection'
p118
I7
sS'china'
p119
I2
sS'mes'
p120
I2
sS'textured'
p121
I2
sS'cult'
p122
I7
sS'sandisk'
p123
I45
sS'hexadisk'
p124
I2
sS'activa'
p125
I6
sS'xft'
p126
I2
sS'buddy'
p127
I4
sS'studs'
p128
I5
sS'kids'
p129
I42
sS'masha'
p130
I2
sS'covers'
p131
I38
sS'aks'
p132
I2
sS'hansx'
p133
I2
sS'kidz'
p134
I3
sS'quadcore'
p135
I3
sS'anchor'
p136
I16
sS'dri'
p137
I2
sS'credit'
p138
I2
sS'jogging'
p139
I6
sS'jegging'
p140
I5
sS'smoke'
p141
I5
sS'military'
p142
I3
sS'engineers'
p143
I2
sS'instacook'
p144
I2
sS'omax'
p145
I4
sS'golden'
p146
I47
sS'prints'
p147
I7
sS'slicer'
p148
I7
sS'strap'
p149
I9
sS'bro'
p150
I2
sS'krown'
p151
I2
sS'jackets'
p152
I55
sS'total'
p153
I9
sS'roi'
p154
I2
sS'unit'
p155
I4
sS'narayan'
p156
I2
sS'mcqs'
p157
I2
sS'army'
p158
I2
sS'double'
p159
I130
sS'marine'
p160
I2
sS'sweater'
p161
I73
sS'gloss'
p162
I5
sS'aaron'
p163
I4
sS'princess'
p164
I7
sS'dnu'
p165
I2
sS'sample'
p166
I2
sS'bike'
p167
I30
sS'music'
p168
I4
sS'passport'
p169
I4
sS'spike'
p170
I9
sS'strike'
p171
I4
sS'nitrotech'
p172
I2
sS'type'
p173
I12
sS'welspun'
p174
I9
sS'calf'
p175
I3
sS'cutecumber'
p176
I5
sS'breathe'
p177
I2
sS'kgs'
p178
I2
sS'playboy'
p179
I4
sS'spargz'
p180
I3
sS'ltr'
p181
I24
sS'layer'
p182
I5
sS'under'
p183
I4
sS'pic'
p184
I6
sS'watts'
p185
I4
sS'accessories'
p186
I9
sS'henry'
p187
I6
sS'glass'
p188
I44
sS'reversible'
p189
I11
sS'rimless'
p190
I3
sS'earclips'
p191
I2
sS'aux'
p192
I13
sS'organic'
p193
I15
sS'cruiser'
p194
I2
sS'embroidered'
p195
I70
sS'ahmedabad'
p196
I3
sS'jmd'
p197
I4
sS'sunpet'
p198
I4
sS'handkerchiefs'
p199
I2
sS'kumar'
p200
I2
sS'flora'
p201
I3
sS'mytri'
p202
I3
sS'ning'
p203
I2
sS'player'
p204
I15
sS'work'
p205
I16
sS'shooz'
p206
I3
sS'erd'
p207
I4
sS'rim'
p208
I13
sS'era'
p209
I3
sS'stealodeal'
p210
I2
sS'concepts'
p211
I3
sS'grovey'
p212
I2
sS'sebamed'
p213
I5
sS'radiance'
p214
I4
sS'nozzle'
p215
I2
sS'dolphin'
p216
I5
sS'india'
p217
I38
sS'honey'
p218
I15
sS'titanium'
p219
I4
sS'marco'
p220
I7
sS'woman'
p221
I8
sS'view'
p222
I3
sS'point'
p223
I8
sS'rayon'
p224
I11
sS'keep'
p225
I2
sS'absolute'
p226
I8
sS'moserbaer'
p227
I6
sS'chanderi'
p228
I13
sS'pogo'
p229
I3
sS'stride'
p230
I2
sS'travel'
p231
I22
sS'damage'
p232
I2
sS'wildhorn'
p233
I8
sS'machine'
p234
I23
sS'how'
p235
I3
sS'hot'
p236
I21
sS'gato'
p237
I2
sS'iliv'
p238
I2
sS'fas'
p239
I2
sS'gate'
p240
I7
sS'panasonic'
p241
I30
sS'beach'
p242
I2
sS'charging'
p243
I6
sS'pizza'
p244
I5
sS'fabrics'
p245
I7
sS'gaming'
p246
I6
sS'fever'
p247
I4
sS'beauty'
p248
I32
sS'automatic'
p249
I4
sS'after'
p250
I4
sS'rasasi'
p251
I2
sS'rigma'
p252
I2
sS'nivia'
p253
I15
sS'modest'
p254
I4
sS'calidad'
p255
I2
sS'arshia'
p256
I3
sS'patankar'
p257
I2
sS'president'
p258
I6
sS'bsnl'
p259
I2
sS'parallel'
p260
I2
sS'luma'
p261
I2
sS'lancer'
p262
I19
sS'vanca'
p263
I5
sS'macroman'
p264
I8
sS'spout'
p265
I3
sS'nike'
p266
I61
sS'harley'
p267
I2
sS'owls'
p268
I3
sS'bedazzle'
p269
I2
sS'green'
p270
I288
sS'ultimate'
p271
I8
sS'enter'
p272
I4
sS'fan'
p273
I7
sS'order'
p274
I53
sS'wind'
p275
I2
sS'wine'
p276
I5
sS'zeb'
p277
I4
sS'exotic'
p278
I2
sS'toaster'
p279
I8
sS'stylobby'
p280
I3
sS'office'
p281
I8
sS'over'
p282
I11
sS'fall'
p283
I4
sS'zen'
p284
I2
sS'captcha'
p285
I2
sS'fab'
p286
I11
sS'london'
p287
I22
sS'plated'
p288
I14
sS'keyboard'
p289
I20
sS'windshield'
p290
I4
sS'mayor'
p291
I2
sS'neosafe'
p292
I3
sS'vento'
p293
I2
sS'fit'
p294
I237
sS'personal'
p295
I6
sS'backpack'
p296
I85
sS'masterchef'
p297
I2
sS'denver'
p298
I5
sS'crew'
p299
I4
sS'lahenga'
p300
I2
sS'magnetic'
p301
I11
sS'encounter'
p302
I2
sS'handicrafts'
p303
I2
sS'hidden'
p304
I2
sS'sqaure'
p305
I3
sS'gents'
p306
I4
sS'toyzstation'
p307
I4
sS'paduki'
p308
I2
sS'belly'
p309
I5
sS'coffee'
p310
I37
sS'everwel'
p311
I2
sS'thrones'
p312
I2
sS'enrich'
p313
I8
sS'slate'
p314
I3
sS'safe'
p315
I4
sS'renka'
p316
I2
sS'band'
p317
I9
sS'oricum'
p318
I5
sS'therapy'
p319
I2
sS'effects'
p320
I5
sS'manicure'
p321
I2
sS'blink'
p322
I4
sS'silver'
p323
I127
sS'pjs'
p324
I6
sS'electro'
p325
I6
sS'rocky'
p326
I2
sS'oxygen'
p327
I2
sS'vinod'
p328
I2
sS'rockville'
p329
I2
sS'edge'
p330
I4
sS'ssc'
p331
I4
sS'plugs'
p332
I2
sS'neckpiecerhinestone'
p333
I2
sS'dyeing'
p334
I18
sS'divinext'
p335
I3
sS'filling'
p336
I15
sS'arrow'
p337
I2
sS'fitness'
p338
I15
sS'acoustic'
p339
I4
sS'crocs'
p340
I3
sS'bone'
p341
I2
sS'voyager'
p342
I2
sS'mdi'
p343
I5
sS'telescope'
p344
I3
sS'chiffon'
p345
I59
sS'diya'
p346
I2
sS'whif'
p347
I2
sS'series'
p348
I17
sS'coldpressed'
p349
I6
sS'mdf'
p350
I2
sS'tiffin'
p351
I4
sS'cmb'
p352
I2
sS'accu'
p353
I10
sS'milan'
p354
I3
sS'mdr'
p355
I15
sS'logo'
p356
I4
sS'extract'
p357
I5
sS'ring'
p358
I26
sS'stripes'
p359
I10
sS'cdma'
p360
I3
sS'velvet'
p361
I20
sS'network'
p362
I3
sS'driving'
p363
I8
sS'gradient'
p364
I2
sS'god'
p365
I2
sS'tales'
p366
I3
sS'diesel'
p367
I2
sS'forty'
p368
I2
sS'dsp'
p369
I2
sS'urbane'
p370
I2
sS'sparkle'
p371
I6
sS'dsl'
p372
I4
sS'daniel'
p373
I3
sS'amethyst'
p374
I2
sS'nite'
p375
I2
sS'shopsome'
p376
I3
sS'marigold'
p377
I2
sS'fuson'
p378
I4
sS'frenchie'
p379
I2
sS'york'
p380
I10
sS'foundation'
p381
I3
sS'aluma'
p382
I4
sS'gritstones'
p383
I6
sS'dolgix'
p384
I2
sS'little'
p385
I9
sS'free'
p386
I92
sS'standard'
p387
I9
sS'shubham'
p388
I2
sS'elle'
p389
I2
sS'hoodie'
p390
I47
sS'checked'
p391
I23
sS'infix'
p392
I2
sS'knit'
p393
I9
sS'venus'
p394
I7
sS'rigo'
p395
I8
sS'xuv'
p396
I2
sS'shelves'
p397
I3
sS'comforthome'
p398
I2
sS'diabetic'
p399
I2
sS'kashmir'
p400
I3
sS'kohinoor'
p401
I6
sS'ath'
p402
I2
sS'lavanya'
p403
I4
sS'silicon'
p404
I6
sS'isi'
p405
I2
sS'signature'
p406
I8
sS'loud'
p407
I2
sS'atx'
p408
I6
sS'user'
p409
I5
sS'naughty'
p410
I2
sS'shopper'
p411
I4
sS'iomcr'
p412
I2
sS'grade'
p413
I4
sS'abhishti'
p414
I5
sS'rani'
p415
I2
sS'veggie'
p416
I3
sS'walkers'
p417
I2
sS'callmate'
p418
I3
sS'kalnirnay'
p419
I2
sS'wash'
p420
I41
sS'fedrigo'
p421
I2
sS'nhp'
p422
I3
sS'chevron'
p423
I7
sS'knight'
p424
I2
sS'comforter'
p425
I4
sS'pulsar'
p426
I3
sS'thick'
p427
I3
sS'bitdefender'
p428
I2
sS'electronic'
p429
I12
sS'tuna'
p430
I2
sS'hood'
p431
I12
sS'basketball'
p432
I7
sS'aire'
p433
I2
sS'garcinia'
p434
I9
sS'girls'
p435
I62
sS'twisted'
p436
I3
sS'fiction'
p437
I3
sS'kinder'
p438
I3
sS'master'
p439
I4
sS'tom'
p440
I2
sS'tamron'
p441
I2
sS'inferno'
p442
I7
sS'john'
p443
I5
sS'genesis'
p444
I2
sS'glucose'
p445
I10
sS'curtains'
p446
I2
sS'ceiling'
p447
I3
sS'hangout'
p448
I2
sS'stickerless'
p449
I2
sS'geneva'
p450
I4
sS'cushions'
p451
I9
sS'homezaara'
p452
I13
sS'gym'
p453
I25
sS'brushes'
p454
I2
sS'compressor'
p455
I3
sS'partywear'
p456
I5
sS'western'
p457
I3
sS'cereal'
p458
I3
sS'printland'
p459
I3
sS'nail'
p460
I18
sS'skimmer'
p461
I2
sS'rdstr'
p462
I5
sS'treo'
p463
I3
sS'shivalik'
p464
I3
sS'magnet'
p465
I12
sS'fairytale'
p466
I2
sS'tree'
p467
I12
sS'rolex'
p468
I4
sS'idly'
p469
I2
sS'mattel'
p470
I2
sS'shower'
p471
I28
sS'endura'
p472
I5
sS'street'
p473
I7
sS'silly'
p474
I4
sS'iron'
p475
I38
sS'seater'
p476
I3
sS'tipping'
p477
I2
sS'mini'
p478
I46
sS'lbs'
p479
I25
sS'vector'
p480
I4
sS'handkerchief'
p481
I4
sS'nutrition'
p482
I22
sS'runner'
p483
I6
sS'modern'
p484
I8
sS'mind'
p485
I2
sS'ginger'
p486
I3
sS'raw'
p487
I8
sS'seed'
p488
I2
sS'salvar'
p489
I4
sS'mint'
p490
I5
sS'saffire'
p491
I6
sS'gear'
p492
I4
sS'affairs'
p493
I2
sS'genuine'
p494
I38
sS'smartmate'
p495
I3
sS'metallic'
p496
I7
sS'rsd'
p497
I3
sS'fitting'
p498
I2
sS'crazzy'
p499
I2
sS'luxury'
p500
I2
sS'doors'
p501
I2
sS'shelf'
p502
I3
sS'sleeveless'
p503
I39
sS'panties'
p504
I11
sS'snowflake'
p505
I2
sS'ypm'
p506
I232
sS'even'
p507
I13
sS'insulated'
p508
I17
sS'dial'
p509
I20
sS'victoria'
p510
I3
sS'regular'
p511
I62
sS'mouth'
p512
I4
sS'letter'
p513
I2
sS'quantitative'
p514
I3
sS'phase'
p515
I2
sS'corded'
p516
I8
sS'marie'
p517
I2
sS'glow'
p518
I14
sS'webcam'
p519
I2
sS'flops'
p520
I57
sS'don'
p521
I2
sS'swami'
p522
I2
sS'punjabi'
p523
I2
sS'flop'
p524
I7
sS'flow'
p525
I15
sS'dog'
p526
I7
sS'spencer'
p527
I3
sS'bracket'
p528
I2
sS'tech'
p529
I3
sS'enterprise'
p530
I7
sS'dos'
p531
I2
sS'ruhaan'
p532
I2
sS'fitted'
p533
I2
sS'marvel'
p534
I7
sS'polypropylene'
p535
I5
sS'skumars'
p536
I3
sS'inspire'
p537
I3
sS'queen'
p538
I8
sS'brogues'
p539
I2
sS'zebronics'
p540
I21
sS'padded'
p541
I12
sS'liza'
p542
I5
sS'radio'
p543
I3
sS'musicals'
p544
I2
sS'king'
p545
I24
sS'subtle'
p546
I3
sS'stybuzz'
p547
I4
sS'amiraj'
p548
I15
sS'kamachi'
p549
I2
sS'flowers'
p550
I9
sS'hrx'
p551
I12
sS'advanced'
p552
I14
sS'sheesham'
p553
I2
sS'uberlyfe'
p554
I3
sS'acne'
p555
I4
sS'ganesham'
p556
I2
sS'mens'
p557
I56
sS'rico'
p558
I7
sS'sonilex'
p559
I5
sS'rich'
p560
I12
sS'vaadi'
p561
I4
sS'rice'
p562
I4
sS'nocolortrans'
p563
I3
sS'rectangle'
p564
I9
sS'amul'
p565
I3
sS'executive'
p566
I9
sS'plate'
p567
I10
sS'riwaz'
p568
I9
sS'sunglasses'
p569
I68
sS'sobre'
p570
I2
sS'klein'
p571
I9
sS'goonj'
p572
I2
sS'honda'
p573
I13
sS'stop'
p574
I6
sS'fitcolus'
p575
I2
sS'pocket'
p576
I29
sS'fiama'
p577
I3
sS'joven'
p578
I4
sS'cushion'
p579
I24
sS'wedding'
p580
I11
sS'izod'
p581
I3
sS'callone'
p582
I2
sS'chutney'
p583
I3
sS'vermello'
p584
I2
sS'lehanga'
p585
I2
sS'bat'
p586
I12
sS'pearson'
p587
I4
sS'jaguar'
p588
I3
sS'perros'
p589
I2
sS'leatherite'
p590
I3
sS'scrubber'
p591
I3
sS'patch'
p592
I3
sS'bag'
p593
I187
sS'goggles'
p594
I4
sS'terabyte'
p595
I4
sS'piggy'
p596
I2
sS'ban'
p597
I7
sS'beevee'
p598
I2
sS'preactivated'
p599
I2
sS'steam'
p600
I11
sS'ears'
p601
I3
sS'bleu'
p602
I2
sS'questions'
p603
I2
sS'rockstar'
p604
I2
sS'motherboard'
p605
I2
sS'highlander'
p606
I6
sS'pads'
p607
I2
sS'maharaja'
p608
I7
sS'cambogia'
p609
I6
sS'allura'
p610
I2
sS'bichona'
p611
I6
sS'tommy'
p612
I4
sS'optimum'
p613
I3
sS'best'
p614
I27
sS'subject'
p615
I2
sS'voyage'
p616
I2
sS'capacity'
p617
I4
sS'nht'
p618
I2
sS'dungaree'
p619
I4
sS'rings'
p620
I2
sS'artificial'
p621
I12
sS'manola'
p622
I2
sS'mud'
p623
I4
sS'mug'
p624
I8
sS'patiyala'
p625
I3
sS'finger'
p626
I3
sS'embroidery'
p627
I7
sS'glutamine'
p628
I2
sS'shaver'
p629
I13
sS'approach'
p630
I2
sS'lazy'
p631
I2
sS'lakme'
p632
I39
sS'omg'
p633
I3
sS'schwarzkopf'
p634
I6
sS'nature'
p635
I13
sS'wrapping'
p636
I2
sS'aquarius'
p637
I2
sS'vitamin'
p638
I9
sS'toilette'
p639
I2
sS'lotion'
p640
I22
sS'toothbrush'
p641
I5
sS'wta'
p642
I2
sS'radyance'
p643
I2
sS'portronics'
p644
I11
sS'wear'
p645
I51
sS'motoway'
p646
I3
sS'carbon'
p647
I2
sS'roller'
p648
I14
sS'kitchen'
p649
I27
sS'coq'
p650
I2
sS'protect'
p651
I2
sS'planner'
p652
I2
sS'dipika'
p653
I2
sS'tablet'
p654
I43
sS'cow'
p655
I3
sS'moisturiser'
p656
I3
sS'resistant'
p657
I3
sS'adapter'
p658
I21
sS'heating'
p659
I4
sS'byc'
p660
I2
sS'tamanna'
p661
I2
sS'cod'
p662
I2
sS'faces'
p663
I2
sS'coi'
p664
I2
sS'uni'
p665
I2
sS'col'
p666
I3
sS'uno'
p667
I17
sS'pre'
p668
I53
sS'tone'
p669
I14
sS'refils'
p670
I2
sS'tong'
p671
I2
sS'aracruz'
p672
I2
sS'memo'
p673
I3
sS'mangal'
p674
I2
sS'dhan'
p675
I3
sS'storite'
p676
I3
sS'matte'
p677
I17
sS'lanterns'
p678
I2
sS'towels'
p679
I14
sS'refill'
p680
I8
sS'ether'
p681
I4
sS'inflator'
p682
I3
sS'bingo'
p683
I2
sS'metrogue'
p684
I3
sS'bathroom'
p685
I10
sS'angel'
p686
I3
sS'chrome'
p687
I12
sS'maxi'
p688
I16
sS'three'
p689
I13
sS'tiny'
p690
I7
sS'blower'
p691
I4
sS'beer'
p692
I4
sS'homefab'
p693
I3
sS'refurbished'
p694
I2
sS'tizen'
p695
I3
sS'basic'
p696
I15
sS'basil'
p697
I2
sS'flexible'
p698
I8
sS'shopolozy'
p699
I2
sS'toning'
p700
I2
sS'dots'
p701
I2
sS'dry'
p702
I35
sS'life'
p703
I17
sS'nayo'
p704
I2
sS'mushroom'
p705
I3
sS'onida'
p706
I3
sS'mcb'
p707
I2
sS'smartwatch'
p708
I3
sS'briefs'
p709
I33
sS'pista'
p710
I3
sS'lift'
p711
I5
sS'repeller'
p712
I2
sS'dixy'
p713
I4
sS'comfortable'
p714
I3
sS'spin'
p715
I3
sS'bridal'
p716
I3
sS'xxl'
p717
I16
sS'tank'
p718
I7
sS'gyan'
p719
I2
sS'servin'
p720
I2
sS'ada'
p721
I3
sS'blends'
p722
I3
sS'slr'
p723
I2
sS'air'
p724
I47
sS'aio'
p725
I2
sS'dashboard'
p726
I2
sS'jaiib'
p727
I4
sS'aid'
p728
I5
sS'pathani'
p729
I3
sS'voice'
p730
I2
sS'smoky'
p731
I3
sS'skirts'
p732
I3
sS'spawn'
p733
I2
sS'doormat'
p734
I4
sS'cylinder'
p735
I2
sS'bio'
p736
I16
sS'sticker'
p737
I19
sS'toolkit'
p738
I2
sS'bodycon'
p739
I2
sS'skipping'
p740
I2
sS'tissue'
p741
I7
sS'prestitia'
p742
I2
sS'conditioner'
p743
I14
sS'mouse'
p744
I25
sS'superbatman'
p745
I4
sS'flyjohn'
p746
I2
sS'redmi'
p747
I12
sS'waken'
p748
I2
sS'bottles'
p749
I13
sS'chakravarthi'
p750
I2
sS'bacca'
p751
I23
sS'belle'
p752
I17
sS'make'
p753
I4
sS'woollen'
p754
I3
sS'bella'
p755
I2
sS'treder'
p756
I2
sS'prettysecrets'
p757
I16
sS'split'
p758
I2
sS'vegetable'
p759
I13
sS'lithium'
p760
I3
sS'bunny'
p761
I4
sS'bells'
p762
I2
sS'wheel'
p763
I10
sS'youth'
p764
I3
sS'plating'
p765
I3
sS'hosiery'
p766
I5
sS'xbap'
p767
I2
sS'presure'
p768
I2
sS'tops'
p769
I79
sS'rain'
p770
I14
sS'hand'
p771
I61
sS'delight'
p772
I3
sS'jiya'
p773
I2
sS'nubuk'
p774
I2
sS'rex'
p775
I6
sS'corbett'
p776
I8
sS'cooktop'
p777
I11
sS'kid'
p778
I6
sS'butter'
p779
I10
sS'jeggings'
p780
I23
sS'atorse'
p781
I3
sS'alphard'
p782
I2
sS'prafful'
p783
I3
sS'neptune'
p784
I2
sS'eps'
p785
I2
sS'ocean'
p786
I2
sS'dazzgear'
p787
I2
sS'contact'
p788
I2
sS'greatest'
p789
I2
sS'mother'
p790
I6
sS'borse'
p791
I3
sS'raindrops'
p792
I3
sS'the'
p793
I143
sS'ajanta'
p794
I2
sS'musical'
p795
I4
sS'hilex'
p796
I2
sS'indigo'
p797
I6
sS'just'
p798
I4
sS'photo'
p799
I10
sS'laptop'
p800
I69
sS'kall'
p801
I10
sS'proriders'
p802
I2
sS'mid'
p803
I10
sS'arpan'
p804
I3
sS'solly'
p805
I4
sS'human'
p806
I9
sS'monika'
p807
I4
sS'yes'
p808
I4
sS'trufit'
p809
I2
sS'lycans'
p810
I2
sS'previous'
p811
I3
sS'goodlay'
p812
I3
sS'unique'
p813
I5
sS'ayushi'
p814
I4
sS'cardigan'
p815
I19
sS'yamaha'
p816
I4
sS'scorpio'
p817
I4
sS'agile'
p818
I2
sS'boot'
p819
I9
sS'royal'
p820
I36
sS'elg'
p821
I2
sS'sportswear'
p822
I2
sS'passive'
p823
I2
sS'collections'
p824
I5
sS'board'
p825
I18
sS'easy'
p826
I21
sS'casotec'
p827
I3
sS'vanity'
p828
I4
sS'hat'
p829
I4
sS'desire'
p830
I18
sS'turquoise'
p831
I9
sS'casting'
p832
I3
sS'marble'
p833
I5
sS'vorson'
p834
I3
sS'thermometer'
p835
I3
sS'motomo'
p836
I4
sS'besiva'
p837
I2
sS'caps'
p838
I11
sS'ritika'
p839
I3
sS'objective'
p840
I4
sS'lcd'
p841
I9
sS'boxer'
p842
I16
sS'dreamy'
p843
I2
sS'spanner'
p844
I2
sS'cape'
p845
I3
sS'shadow'
p846
I4
sS'designers'
p847
I2
sS'sdhc'
p848
I7
sS'dreams'
p849
I6
sS'reusable'
p850
I2
sS'scarpa'
p851
I2
sS'kazo'
p852
I2
sS'vimal'
p853
I3
sS'manual'
p854
I9
sS'rsmw'
p855
I2
sS'luminous'
p856
I4
sS'xbox'
p857
I2
sS'bheem'
p858
I3
sS'snug'
p859
I4
sS'steps'
p860
I2
sS'mosquito'
p861
I5
sS'night'
p862
I29
sS'eyelet'
p863
I9
sS'insta'
p864
I5
sS'security'
p865
I9
sS'antique'
p866
I9
sS'surf'
p867
I2
sS'eccellente'
p868
I2
sS'right'
p869
I3
sS'old'
p870
I7
sS'creek'
p871
I2
sS'deal'
p872
I11
sS'people'
p873
I16
sS'nevy'
p874
I3
sS'dead'
p875
I2
sS'zoom'
p876
I4
sS'sponge'
p877
I4
sS'born'
p878
I2
sS'couture'
p879
I6
sS'kesar'
p880
I2
sS'jupiter'
p881
I2
sS'topware'
p882
I2
sS'rise'
p883
I6
sS'industries'
p884
I5
sS'maspar'
p885
I2
sS'tutorial'
p886
I2
sS'orchid'
p887
I2
sS'anita'
p888
I2
sS'orpat'
p889
I6
sS'cooper'
p890
I30
sS'beads'
p891
I9
sS'for'
p892
I678
sS'bottom'
p893
I19
sS'purple'
p894
I75
sS'ear'
p895
I51
sS'quarks'
p896
I4
sS'fox'
p897
I4
sS'microwave'
p898
I9
sS'creative'
p899
I3
sS'tshirts'
p900
I92
sS'icy'
p901
I2
sS'fog'
p902
I6
sS'liteforce'
p903
I2
sS'bra'
p904
I42
sS'faballey'
p905
I4
sS'melange'
p906
I27
sS'hunk'
p907
I3
sS'mooch'
p908
I4
sS'flaps'
p909
I2
sS'mms'
p910
I2
sS'core'
p911
I10
sS'shaker'
p912
I6
sS'sewing'
p913
I2
sS'peel'
p914
I2
sS'marketing'
p915
I4
sS'burn'
p916
I2
sS'colorplus'
p917
I3
sS'yoke'
p918
I2
sS'tulsattva'
p919
I2
sS'keeper'
p920
I4
sS'eye'
p921
I29
sS'peep'
p922
I3
sS'super'
p923
I35
sS'shonaya'
p924
I7
sS'plug'
p925
I9
sS'wht'
p926
I2
sS'oren'
p927
I2
sS'weighing'
p928
I21
sS'priyanka'
p929
I2
sS'coral'
p930
I12
sS'months'
p931
I13
sS'essential'
p932
I8
sS'dinner'
p933
I10
sS'kozdiko'
p934
I2
sS'wonker'
p935
I2
sS'usmgm'
p936
I4
sS'parivar'
p937
I2
sS'match'
p938
I4
sS'bath'
p939
I51
sS'duke'
p940
I9
sS'handloom'
p941
I18
sS'nabaiji'
p942
I2
sS'bata'
p943
I4
sS'mochi'
p944
I3
sS'tinkerbell'
p945
I2
sS'material'
p946
I99
sS'wrab'
p947
I10
sS'honeymoon'
p948
I2
sS'carrot'
p949
I2
sS'mba'
p950
I2
sS'slipons'
p951
I4
sS'bitterlime'
p952
I3
sS'carafe'
p953
I2
sS'wrap'
p954
I5
sS'fucasso'
p955
I2
sS'multifunctional'
p956
I3
sS'bellies'
p957
I17
sS'novo'
p958
I2
sS'art'
p959
I41
sS'america'
p960
I2
sS'fabric'
p961
I14
sS'eyp'
p962
I2
sS'support'
p963
I12
sS'tennis'
p964
I13
sS'fuchsia'
p965
I3
sS'gift'
p966
I27
sS'nova'
p967
I26
sS'virgin'
p968
I6
sS'way'
p969
I7
sS'wax'
p970
I18
sS'overhead'
p971
I3
sS'war'
p972
I2
sS'viha'
p973
I2
sS'happy'
p974
I12
sS'fork'
p975
I3
sS'ayaany'
p976
I2
sS'head'
p977
I11
sS'tints'
p978
I2
sS'waistcoat'
p979
I5
sS'beyblade'
p980
I2
sS'offer'
p981
I5
sS'batman'
p982
I5
sS'heal'
p983
I2
sS'converse'
p984
I2
sS'remover'
p985
I7
sS'ford'
p986
I4
sS'wireless'
p987
I52
sS'sagas'
p988
I2
sS'solids'
p989
I2
sS'diaper'
p990
I9
sS'solar'
p991
I4
sS'stand'
p992
I16
sS'true'
p993
I10
sS'nayasa'
p994
I12
sS'flavour'
p995
I2
sS'spices'
p996
I2
sS'mtr'
p997
I15
sS'mts'
p998
I3
sS'inside'
p999
I3
sS'badam'
p1000
I4
sS'mtv'
p1001
I4
sS'stores'
p1002
I2
sS'paprika'
p1003
I2
sS'crystal'
p1004
I16
sS'pest'
p1005
I2
sS'sapphire'
p1006
I2
sS'neckkurta'
p1007
I2
sS'mtc'
p1008
I3
sS'zodiac'
p1009
I2
sS'pendrive'
p1010
I18
sS'rialto'
p1011
I4
sS'trim'
p1012
I2
sS'musk'
p1013
I5
sS'trio'
p1014
I5
sS'classic'
p1015
I36
sS'bharti'
p1016
I3
sS'jabra'
p1017
I6
sS'abstract'
p1018
I9
sS'escape'
p1019
I5
sS'storer'
p1020
I9
sS'bathrobe'
p1021
I3
sS'textbook'
p1022
I3
sS'sale'
p1023
I2
sS'khi'
p1024
I2
sS'diamond'
p1025
I16
sS'bedsheet'
p1026
I73
sS'mrs'
p1027
I3
sS'shiv'
p1028
I4
sS'check'
p1029
I4
sS'physical'
p1030
I2
sS'skullcandy'
p1031
I10
sS'dotted'
p1032
I2
sS'floor'
p1033
I6
sS'sugar'
p1034
I7
sS'handmade'
p1035
I4
sS'fresvillaa'
p1036
I2
sS'tin'
p1037
I2
sS'republic'
p1038
I4
sS'digital'
p1039
I81
sS'test'
p1040
I17
sS'holly'
p1041
I3
sS'whey'
p1042
I22
sS'roll'
p1043
I13
sS'rangoli'
p1044
I2
sS'eternity'
p1045
I2
sS'electrolux'
p1046
I2
sS'sling'
p1047
I34
sS'juicer'
p1048
I17
sS'eiffel'
p1049
I2
sS'blissta'
p1050
I2
sS'cambric'
p1051
I2
sS'essart'
p1052
I2
sS'ico'
p1053
I3
sS'fabdeal'
p1054
I10
sS'omega'
p1055
I10
sS'camisoles'
p1056
I2
sS'radha'
p1057
I2
sS'jones'
p1058
I43
sS'floaters'
p1059
I24
sS'bullet'
p1060
I2
sS'chrono'
p1061
I2
sS'home'
p1062
I71
sS'prcombo'
p1063
I2
sS'lilliput'
p1064
I3
sS'boxes'
p1065
I2
sS'collared'
p1066
I2
sS'warm'
p1067
I13
sS'bonacure'
p1068
I2
sS'time'
p1069
I8
sS'push'
p1070
I7
sS'serious'
p1071
I2
sS'thankar'
p1072
I3
sS'adult'
p1073
I6
sS'gown'
p1074
I16
sS'concept'
p1075
I2
sS'rom'
p1076
I2
sS'chain'
p1077
I29
sS'karishma'
p1078
I3
sS'global'
p1079
I2
sS'activated'
p1080
I3
sS'walking'
p1081
I14
sS'skate'
p1082
I2
sS'ice'
p1083
I14
sS'skin'
p1084
I40
sS'chair'
p1085
I5
sS'bomber'
p1086
I11
sS'milk'
p1087
I17
sS'sumeet'
p1088
I3
sS'tron'
p1089
I2
sS'nuteez'
p1090
I3
sS'venice'
p1091
I3
sS'grape'
p1092
I3
sS'essentials'
p1093
I2
sS'zone'
p1094
I2
sS'herbalife'
p1095
I26
sS'flask'
p1096
I17
sS'pouch'
p1097
I23
sS'flash'
p1098
I8
sS'veg'
p1099
I3
sS'charge'
p1100
I9
sS'vee'
p1101
I3
sS'favourite'
p1102
I3
sS'amla'
p1103
I2
sS'rham'
p1104
I2
sS'anekaant'
p1105
I2
sS'macho'
p1106
I3
sS'quilts'
p1107
I3
sS'retro'
p1108
I3
sS'brown'
p1109
I316
sS'protective'
p1110
I4
sS'string'
p1111
I3
sS'staedtler'
p1112
I2
sS'nikkor'
p1113
I3
sS'krazy'
p1114
I2
sS'trident'
p1115
I6
sS'shivpriya'
p1116
I3
sS'choice'
p1117
I3
sS'wallets'
p1118
I4
sS'redish'
p1119
I2
sS'ncase'
p1120
I5
sS'cyan'
p1121
I4
sS'blast'
p1122
I2
sS'baggit'
p1123
I12
sS'eluga'
p1124
I4
sS'room'
p1125
I2
sS'skyblue'
p1126
I5
sS'mmojah'
p1127
I4
sS'kurtas'
p1128
I59
sS'zaveri'
p1129
I8
sS'mugs'
p1130
I2
sS'level'
p1131
I2
sS'skycandle'
p1132
I3
sS'tex'
p1133
I2
sS'skore'
p1134
I2
sS'gun'
p1135
I16
sS'bikers'
p1136
I2
sS'solved'
p1137
I10
sS'yala'
p1138
I2
sS'excellence'
p1139
I2
sS'teal'
p1140
I8
sS'team'
p1141
I3
sS'quick'
p1142
I13
sS'bikerz'
p1143
I3
sS'woven'
p1144
I12
sS'round'
p1145
I124
sS'shoe'
p1146
I61
sS'shave'
p1147
I4
sS'upper'
p1148
I10
sS'blade'
p1149
I14
sS'htc'
p1150
I29
sS'version'
p1151
I2
sS'trend'
p1152
I3
sS'tvsh'
p1153
I4
sS'bead'
p1154
I2
sS'columbus'
p1155
I13
sS'blue'
p1156
I773
sS'khaki'
p1157
I11
sS'chopping'
p1158
I2
sS'shirts'
p1159
I114
sS'port'
p1160
I4
sS'traderss'
p1161
I2
sS'headset'
p1162
I45
sS'constitution'
p1163
I2
sS'barbie'
p1164
I5
sS'filler'
p1165
I3
sS'menthol'
p1166
I2
sS'manetti'
p1167
I3
sS'hazel'
p1168
I2
sS'current'
p1169
I2
sS'autosun'
p1170
I8
sS'health'
p1171
I20
sS'schiffli'
p1172
I2
sS'satins'
p1173
I8
sS'cookieman'
p1174
I2
sS'camlin'
p1175
I2
sS'international'
p1176
I17
sS'kuris'
p1177
I2
sS'sweaters'
p1178
I44
sS'cleaner'
p1179
I8
sS'kama'
p1180
I2
sS'camisole'
p1181
I3
sS'pvc'
p1182
I16
sS'makeup'
p1183
I5
sS'shankar'
p1184
I4
sS'french'
p1185
I6
sS'strontium'
p1186
I9
sS'elbow'
p1187
I4
sS'witch'
p1188
I2
sS'muscletech'
p1189
I3
sS'apache'
p1190
I2
sS'dandruff'
p1191
I4
sS'moisturizer'
p1192
I4
sS'xtreme'
p1193
I3
sS'volume'
p1194
I2
sS'change'
p1195
I2
sS'knowledge'
p1196
I6
sS'box'
p1197
I92
sS'boy'
p1198
I26
sS'sprouter'
p1199
I2
sS'bajaj'
p1200
I22
sS'condoms'
p1201
I3
sS'shift'
p1202
I5
sS'garnier'
p1203
I4
sS'engineered'
p1204
I2
sS'united'
p1205
I50
sS'bow'
p1206
I28
sS'elastane'
p1207
I3
sS'exams'
p1208
I6
sS'bon'
p1209
I3
sS'lamps'
p1210
I3
sS'cross'
p1211
I8
sS'history'
p1212
I3
sS'studies'
p1213
I2
sS'pillow'
p1214
I73
sS'hbs'
p1215
I2
sS'carpets'
p1216
I3
sS'engineer'
p1217
I2
sS'decorative'
p1218
I7
sS'adjustable'
p1219
I12
sS'love'
p1220
I22
sS'oem'
p1221
I5
sS'hiking'
p1222
I2
sS'extra'
p1223
I11
sS'dogspot'
p1224
I2
sS'canin'
p1225
I6
sS'heena'
p1226
I5
sS'stoa'
p1227
I2
sS'marvelous'
p1228
I2
sS'shimmer'
p1229
I2
sS'fake'
p1230
I2
sS'marker'
p1231
I2
sS'surmount'
p1232
I2
sS'fbi'
p1233
I2
sS'sakhi'
p1234
I3
sS'sky'
p1235
I11
sS'buttons'
p1236
I2
sS'projector'
p1237
I2
sS'handbags'
p1238
I17
sS'combi'
p1239
I3
sS'dangle'
p1240
I4
sS'sports'
p1241
I188
sS'connector'
p1242
I2
sS'superfibre'
p1243
I2
sS'andy'
p1244
I2
sS'iphone'
p1245
I46
sS'liva'
p1246
I2
sS'memory'
p1247
I57
sS'microfiber'
p1248
I6
sS'olympiad'
p1249
I2
sS'fino'
p1250
I2
sS'today'
p1251
I5
sS'athena'
p1252
I2
sS'entrance'
p1253
I2
sS'club'
p1254
I28
sS'flying'
p1255
I10
sS'combo'
p1256
I227
sS'bellina'
p1257
I2
sS'chocolate'
p1258
I34
sS'dumbell'
p1259
I2
sS'olive'
p1260
I24
sS'goldstar'
p1261
I2
sS'piano'
p1262
I3
sS'sanskruti'
p1263
I3
sS'fly'
p1264
I3
sS'graphic'
p1265
I14
sS'fourths'
p1266
I3
sS'cord'
p1267
I8
sS'tokyo'
p1268
I2
sS'molife'
p1269
I5
sS'car'
p1270
I140
sS'cap'
p1271
I33
sS'cat'
p1272
I14
sS'decker'
p1273
I13
sS'soup'
p1274
I2
sS'vega'
p1275
I15
sS'can'
p1276
I7
sS'cam'
p1277
I2
sS'cal'
p1278
I2
sS'mill'
p1279
I4
sS'lapis'
p1280
I2
sS'heart'
p1281
I21
sS'crazy'
p1282
I2
sS'earphone'
p1283
I16
sS'stream'
p1284
I2
sS'nexus'
p1285
I10
sS'december'
p1286
I7
sS'awesome'
p1287
I7
sS'ghagra'
p1288
I2
sS'drawer'
p1289
I3
sS'fortuner'
p1290
I3
sS'spl'
p1291
I4
sS'dabur'
p1292
I22
sS'razai'
p1293
I2
sS'spa'
p1294
I6
sS'balaclava'
p1295
I4
sS'stole'
p1296
I6
sS'organizer'
p1297
I10
sS'spf'
p1298
I12
sS'pink'
p1299
I240
sS'litre'
p1300
I11
sS'winter'
p1301
I21
sS'necklaces'
p1302
I3
sS'eavan'
p1303
I7
sS'freezer'
p1304
I2
sS'scooty'
p1305
I2
sS'lounge'
p1306
I12
sS'nyn'
p1307
I3
sS'pure'
p1308
I30
sS'elephant'
p1309
I4
sS'plus'
p1310
I64
sS'puri'
p1311
I2
sS'bogo'
p1312
I5
sS'divider'
p1313
I3
sS'economy'
p1314
I3
sS'kizashi'
p1315
I3
sS'product'
p1316
I82
sS'designer'
p1317
I78
sS'laundry'
p1318
I6
sS'explorer'
p1319
I2
sS'cocktail'
p1320
I2
sS'aging'
p1321
I5
sS'max'
p1322
I13
sS'dive'
p1323
I3
sS'spot'
p1324
I7
sS'felizo'
p1325
I2
sS'diva'
p1326
I5
sS'accessory'
p1327
I5
sS'levi'
p1328
I5
sS'birthday'
p1329
I4
sS'mag'
p1330
I2
sS'date'
p1331
I13
sS'mah'
p1332
I52
sS'araham'
p1333
I2
sS'dove'
p1334
I8
sS'grow'
p1335
I3
sS'lifting'
p1336
I2
sS'man'
p1337
I14
sS'tornado'
p1338
I5
sS'natural'
p1339
I20
sS'waist'
p1340
I10
sS'johnson'
p1341
I18
sS'davidoff'
p1342
I3
sS'ltd'
p1343
I2
sS'simple'
p1344
I4
sS'ghf'
p1345
I2
sS'mango'
p1346
I15
sS'truck'
p1347
I2
sS'cannon'
p1348
I2
sS'basket'
p1349
I5
sS'talk'
p1350
I2
sS'cute'
p1351
I20
sS'serving'
p1352
I11
sS'shield'
p1353
I3
sS'digitru'
p1354
I2
sS'gkidz'
p1355
I3
sS'midnight'
p1356
I3
sS'canary'
p1357
I6
sS'years'
p1358
I36
sS'brain'
p1359
I3
sS'nsk'
p1360
I3
sS'chapterwise'
p1361
I2
sS'shake'
p1362
I11
sS'bipha'
p1363
I2
sS'cold'
p1364
I4
sS'kaju'
p1365
I2
sS'birds'
p1366
I7
sS'aquasafe'
p1367
I7
sS'adhesive'
p1368
I4
sS'satya'
p1369
I7
sS'thumb'
p1370
I3
sS'forme'
p1371
I3
sS'sata'
p1372
I2
sS'willow'
p1373
I7
sS'kalenji'
p1374
I2
sS'amazing'
p1375
I8
sS'hanky'
p1376
I2
sS'window'
p1377
I10
sS'creations'
p1378
I6
sS'somny'
p1379
I4
sS'unicott'
p1380
I2
sS'morelife'
p1381
I2
sS'tiara'
p1382
I2
sS'monopod'
p1383
I5
sS'chikki'
p1384
I3
sS'cutter'
p1385
I8
sS'prime'
p1386
I7
sS'non'
p1387
I32
sS'lakshmi'
p1388
I2
sS'hop'
p1389
I5
sS'kurta'
p1390
I92
sS'killer'
p1391
I5
sS'shoulder'
p1392
I21
sS'kundan'
p1393
I9
sS'hala'
p1394
I3
sS'lunch'
p1395
I60
sS'anson'
p1396
I2
sS'hamilton'
p1397
I2
sS'safari'
p1398
I11
sS'half'
p1399
I30
sS'not'
p1400
I6
sS'now'
p1401
I2
sS'qhm'
p1402
I5
sS'term'
p1403
I3
sS'flexi'
p1404
I4
sS'dida'
p1405
I2
sS'name'
p1406
I10
sS'clarks'
p1407
I2
sS'hancock'
p1408
I3
sS'drop'
p1409
I8
sS'deco'
p1410
I3
sS'rock'
p1411
I7
sS'quarter'
p1412
I2
sS'vogue'
p1413
I6
sS'turtle'
p1414
I4
sS'bicycle'
p1415
I3
sS'square'
p1416
I34
sS'buccino'
p1417
I2
sS'lotto'
p1418
I23
sS'lam'
p1419
I2
sS'amzer'
p1420
I5
sS'vaamsi'
p1421
I14
sS'revised'
p1422
I4
sS'garnet'
p1423
I5
sS'lycra'
p1424
I22
sS'richly'
p1425
I2
sS'easyfone'
p1426
I2
sS'flomaster'
p1427
I6
sS'year'
p1428
I23
sS'girl'
p1429
I45
sS'alessia'
p1430
I6
sS'pills'
p1431
I6
sS'moisturising'
p1432
I2
sS'canvas'
p1433
I51
sS'container'
p1434
I54
sS'stitch'
p1435
I3
sS'everything'
p1436
I3
sS'space'
p1437
I4
sS'blu'
p1438
I8
sS'sbuys'
p1439
I2
sS'viscose'
p1440
I11
sS'factory'
p1441
I4
sS'blr'
p1442
I4
sS'opener'
p1443
I3
sS'papers'
p1444
I12
sS'blk'
p1445
I27
sS'internet'
p1446
I3
sS'formula'
p1447
I15
sS'sensor'
p1448
I4
sS'oshop'
p1449
I3
sS'gram'
p1450
I2
sS'metro'
p1451
I4
sS'laxmipati'
p1452
I3
sS'monster'
p1453
I3
sS'bhringraj'
p1454
I2
sS'thong'
p1455
I2
sS'sheffield'
p1456
I3
sS'jaipuri'
p1457
I5
sS'coin'
p1458
I5
sS'cut'
p1459
I6
sS'flyer'
p1460
I4
sS'california'
p1461
I5
sS'vinyl'
p1462
I11
sS'typhoo'
p1463
I4
sS'org'
p1464
I2
sS'headband'
p1465
I9
sS'wajbee'
p1466
I3
sS'card'
p1467
I104
sS'care'
p1468
I28
sS'hypnotex'
p1469
I2
sS'training'
p1470
I15
sS'flare'
p1471
I9
sS'shahnaz'
p1472
I3
sS'headphones'
p1473
I27
sS'programming'
p1474
I4
sS'castell'
p1475
I5
sS'british'
p1476
I3
sS'butterflies'
p1477
I5
sS'mesh'
p1478
I10
sS'footwear'
p1479
I13
sS'blacksmith'
p1480
I2
sS'router'
p1481
I10
sS'titlis'
p1482
I2
sS'jazzup'
p1483
I4
sS'first'
p1484
I3
sS'blind'
p1485
I2
sS'miroir'
p1486
I2
sS'bling'
p1487
I2
sS'onn'
p1488
I2
sS'aarika'
p1489
I2
sS'dispenser'
p1490
I16
sS'wallders'
p1491
I2
sS'gionee'
p1492
I14
sS'nutritional'
p1493
I6
sS'one'
p1494
I51
sS'turbomix'
p1495
I2
sS'styler'
p1496
I3
sS'carry'
p1497
I5
sS'ons'
p1498
I3
sS'tresemme'
p1499
I5
sS'bcaa'
p1500
I3
sS'open'
p1501
I5
sS'size'
p1502
I432
sS'sheep'
p1503
I3
sS'city'
p1504
I3
sS'sheer'
p1505
I2
sS'law'
p1506
I2
sS'sheet'
p1507
I22
sS'ctet'
p1508
I2
sS'prc'
p1509
I3
sS'plastic'
p1510
I69
sS'bolt'
p1511
I7
sS'freebie'
p1512
I6
sS'moisture'
p1513
I3
sS'shoppers'
p1514
I3
sS'masala'
p1515
I5
sS'white'
p1516
I525
sS'cooling'
p1517
I4
sS'yepmecasual'
p1518
I3
sS'ias'
p1519
I2
sS'elance'
p1520
I2
sS'morpheme'
p1521
I3
sS'aurelia'
p1522
I2
sS'hub'
p1523
I9
sS'payjama'
p1524
I2
sS'shawl'
p1525
I3
sS'heritage'
p1526
I4
sS'alan'
p1527
I12
sS'padding'
p1528
I4
sS'massager'
p1529
I2
sS'harbour'
p1530
I13
sS'kamal'
p1531
I11
sS'swisstyle'
p1532
I3
sS'quad'
p1533
I4
sS'vishal'
p1534
I3
sS'holder'
p1535
I60
sS'milton'
p1536
I41
sS'wide'
p1537
I2
sS'talkies'
p1538
I2
sS'ishake'
p1539
I2
sS'chek'
p1540
I8
sS'coats'
p1541
I4
sS'smps'
p1542
I2
sS'artmagik'
p1543
I2
sS'glossy'
p1544
I3
sS'aesthetic'
p1545
I2
sS'knob'
p1546
I3
sS'college'
p1547
I6
sS'iik'
p1548
I2
sS'scuba'
p1549
I3
sS'tractor'
p1550
I2
sS'and'
p1551
I577
sS'sai'
p1552
I6
sS'rene'
p1553
I2
sS'san'
p1554
I6
sS'nicer'
p1555
I4
sS'pro'
p1556
I41
sS'prn'
p1557
I2
sS'lafantar'
p1558
I3
sS'jewels'
p1559
I6
sS'healthcare'
p1560
I4
sS'medium'
p1561
I27
sS'suspense'
p1562
I2
sS'pastry'
p1563
I2
sS'allen'
p1564
I7
sS'turner'
p1565
I4
sS'sap'
p1566
I3
sS'gluco'
p1567
I2
sS'any'
p1568
I7
sS'batting'
p1569
I2
sS'sat'
p1570
I3
sS'bakeware'
p1571
I5
sS'speakers'
p1572
I4
sS'hooded'
p1573
I34
sS'handicraft'
p1574
I2
sS'fashionable'
p1575
I6
sS'basicare'
p1576
I4
sS'ramcha'
p1577
I3
sS'ideas'
p1578
I2
sS'zoo'
p1579
I2
sS'note'
p1580
I24
sS'sciences'
p1581
I2
sS'ideal'
p1582
I5
sS'hookah'
p1583
I4
sS'supply'
p1584
I3
sS'online'
p1585
I4
sS'palazzo'
p1586
I3
sS'performance'
p1587
I3
sS'personalized'
p1588
I2
sS'romper'
p1589
I12
sS'channel'
p1590
I9
sS'butterfly'
p1591
I8
sS'urge'
p1592
I3
sS'kartaya'
p1593
I2
sS'printer'
p1594
I5
sS'pain'
p1595
I2
sS'theatre'
p1596
I2
sS'normal'
p1597
I3
sS'track'
p1598
I59
sS'price'
p1599
I14
sS'miniature'
p1600
I3
sS'numero'
p1601
I15
sS'uya'
p1602
I2
sS'beta'
p1603
I2
sS'iws'
p1604
I10
sS'printed'
p1605
I326
sS'sheets'
p1606
I8
sS'crochet'
p1607
I5
sS'pair'
p1608
I26
sS'knee'
p1609
I14
sS'fck'
p1610
I2
sS'icon'
p1611
I4
sS'vixenwrap'
p1612
I2
sS'forever'
p1613
I15
sS'enamel'
p1614
I8
sS'cloth'
p1615
I12
sS'egg'
p1616
I3
sS'drive'
p1617
I57
sS'pebbleyard'
p1618
I2
sS'wing'
p1619
I2
sS'fille'
p1620
I5
sS'rexine'
p1621
I2
sS'ferrari'
p1622
I6
sS'axe'
p1623
I6
sS'stockings'
p1624
I3
sS'professional'
p1625
I17
sS'senior'
p1626
I4
sS'soha'
p1627
I3
sS'luxor'
p1628
I5
sS'quantity'
p1629
I26
sS'shop'
p1630
I18
sS'cobra'
p1631
I2
sS'superior'
p1632
I2
sS'cherry'
p1633
I5
sS'foaming'
p1634
I2
sS'show'
p1635
I4
sS'lotus'
p1636
I11
sS'jewelery'
p1637
I2
sS'cbse'
p1638
I3
sS'contemporary'
p1639
I3
sS'massage'
p1640
I5
sS'bright'
p1641
I3
sS'gnawlers'
p1642
I2
sS'cortina'
p1643
I4
sS'glider'
p1644
I3
sS'corner'
p1645
I3
sS'ladle'
p1646
I3
sS'frames'
p1647
I2
sS'geography'
p1648
I2
sS'woolen'
p1649
I23
sS'feng'
p1650
I2
sS'bagkok'
p1651
I3
sS'cloak'
p1652
I4
sS'fluid'
p1653
I4
sS'acupressure'
p1654
I4
sS'only'
p1655
I9
sS'wood'
p1656
I12
sS'black'
p1657
I1295
sS'raglan'
p1658
I2
sS'essence'
p1659
I2
sS'sierra'
p1660
I2
sS'robe'
p1661
I5
sS'fort'
p1662
I3
sS'bruno'
p1663
I3
sS'oyedeal'
p1664
I2
sS'nelf'
p1665
I2
sS'ionizer'
p1666
I2
sS'get'
p1667
I34
sS'assistant'
p1668
I2
sS'brightening'
p1669
I2
sS'nell'
p1670
I5
sS'dymatize'
p1671
I2
sS'ssn'
p1672
I4
sS'outlet'
p1673
I3
sS'bracelets'
p1674
I2
sS'onesport'
p1675
I2
sS'gen'
p1676
I20
sS'roadster'
p1677
I58
sS'gel'
p1678
I32
sS'omron'
p1679
I9
sS'krishna'
p1680
I8
sS'resource'
p1681
I2
sS'artist'
p1682
I2
sS'leather'
p1683
I159
sS'mzbin'
p1684
I4
sS'healthviva'
p1685
I3
sS'zahab'
p1686
I2
sS'samco'
p1687
I2
sS'morning'
p1688
I2
sS'joker'
p1689
I3
sS'skyline'
p1690
I5
sS'miles'
p1691
I5
sS'bison'
p1692
I2
sS'skintice'
p1693
I2
sS'musclepharm'
p1694
I2
sS'bodysuits'
p1695
I2
sS'brio'
p1696
I2
sS'snapback'
p1697
I3
sS'vision'
p1698
I8
sS'chhipa'
p1699
I2
sS'wiki'
p1700
I2
sS'arrival'
p1701
I3
sS'myopia'
p1702
I2
sS'burst'
p1703
I5
sS'srfda'
p1704
I2
sS'synthetics'
p1705
I2
sS'kielz'
p1706
I2
sS'seat'
p1707
I11
sS'cologne'
p1708
I4
sS'chromozome'
p1709
I2
sS'ixus'
p1710
I2
sS'aarushi'
p1711
I2
sS'vivo'
p1712
I6
sS'seam'
p1713
I2
sS'parking'
p1714
I5
sS'hjee'
p1715
I2
sS'stanley'
p1716
I2
sS'calendar'
p1717
I3
sS'sport'
p1718
I98
sS'taparia'
p1719
I2
sS'wonder'
p1720
I6
sS'clips'
p1721
I2
sS'palette'
p1722
I2
sS'puma'
p1723
I79
sS'cleaning'
p1724
I13
sS'hybrid'
p1725
I4
sS'shiva'
p1726
I2
sS'rupa'
p1727
I17
sS'materials'
p1728
I4
sS'pump'
p1729
I14
sS'tynor'
p1730
I5
sS'landline'
p1731
I16
sS'diamonds'
p1732
I2
sS'herbal'
p1733
I5
sS'geometric'
p1734
I7
sS'vkc'
p1735
I7
sS'urban'
p1736
I14
sS'kook'
p1737
I8
sS'loofah'
p1738
I2
sS'notice'
p1739
I2
sS'panache'
p1740
I5
sS'atta'
p1741
I2
sS'majesty'
p1742
I7
sS'sparx'
p1743
I71
sS'screen'
p1744
I9
sS'immitation'
p1745
I2
sS'guitar'
p1746
I10
sS'inkovy'
p1747
I2
sS'jovial'
p1748
I12
sS'footie'
p1749
I3
sS'snowbell'
p1750
I5
sS'recron'
p1751
I2
sS'spark'
p1752
I6
sS'comb'
p1753
I4
sS'chavez'
p1754
I3
sS'tawa'
p1755
I9
sS'many'
p1756
I4
sS'trades'
p1757
I3
sS'quace'
p1758
I2
sS'officer'
p1759
I3
sS'wrn'
p1760
I2
sS'multicolor'
p1761
I69
sS'aura'
p1762
I2
sS'item'
p1763
I30
sS'pcs'
p1764
I151
sS'mani'
p1765
I3
sS'grooming'
p1766
I3
sS'oswal'
p1767
I3
sS'ratnaprash'
p1768
I4
sS'binatone'
p1769
I2
sS'color'
p1770
I152
sS'catbird'
p1771
I3
sS'jeans'
p1772
I237
sS'centre'
p1773
I3
sS'poly'
p1774
I8
sS'twin'
p1775
I10
sS'anti'
p1776
I35
sS'kashana'
p1777
I2
sS'learning'
p1778
I2
sS'orrix'
p1779
I2
sS'polo'
p1780
I86
sS'avon'
p1781
I8
sS'boat'
p1782
I3
sS'amino'
p1783
I2
sS'caring'
p1784
I2
sS'checkered'
p1785
I29
sS'heusen'
p1786
I3
sS'teddy'
p1787
I2
sS'stretch'
p1788
I3
sS'toothpaste'
p1789
I6
sS'marathon'
p1790
I5
sS'suitings'
p1791
I2
sS'dixcy'
p1792
I6
sS'mark'
p1793
I21
sS'tropical'
p1794
I5
sS'combined'
p1795
I2
sS'mars'
p1796
I2
sS'studded'
p1797
I4
sS'helicopter'
p1798
I4
sS'mary'
p1799
I3
sS'colors'
p1800
I60
sS'rosra'
p1801
I5
sS'aero'
p1802
I3
sS'resistance'
p1803
I4
sS'antivirus'
p1804
I4
sS'nikon'
p1805
I11
sS'ltrs'
p1806
I4
sS'petrol'
p1807
I3
sS'kavya'
p1808
I2
sS'bonjour'
p1809
I4
sS'seasons'
p1810
I2
sS'ruby'
p1811
I8
sS'odyssey'
p1812
I3
sS'jute'
p1813
I4
sS'buster'
p1814
I3
sS'sound'
p1815
I7
sS'hdt'
p1816
I11
sS'kappa'
p1817
I2
sS'kalpanik'
p1818
I2
sS'elaichi'
p1819
I3
sS'kaftan'
p1820
I2
sS'spiderman'
p1821
I2
sS'reebok'
p1822
I39
sS'jhalak'
p1823
I2
sS'shree'
p1824
I20
sS'cash'
p1825
I2
sS'ecraftindia'
p1826
I3
sS'colorbar'
p1827
I2
sS'hdd'
p1828
I2
sS'clr'
p1829
I3
sS'cock'
p1830
I24
sS'khushali'
p1831
I2
sS'slippers'
p1832
I79
sS'soie'
p1833
I2
sS'speedwav'
p1834
I15
sS'aluminium'
p1835
I14
sS'handy'
p1836
I10
sS'zenith'
p1837
I7
sS'soil'
p1838
I2
sS'inflatable'
p1839
I3
sS'canon'
p1840
I12
sS'hills'
p1841
I2
sS'sleeping'
p1842
I5
sS'good'
p1843
I8
sS'curren'
p1844
I5
sS'heels'
p1845
I44
sS'litres'
p1846
I2
sS'protein'
p1847
I24
sS'cottinfab'
p1848
I2
sS'technology'
p1849
I4
sS'delhi'
p1850
I5
sS'spaces'
p1851
I8
sS'bags'
p1852
I27
sS'spunk'
p1853
I2
sS'shiner'
p1854
I2
sS'dressberry'
p1855
I10
sS'nightcat'
p1856
I2
sS'media'
p1857
I7
sS'fender'
p1858
I2
sS'bowl'
p1859
I25
sS'lava'
p1860
I10
sS'pad'
p1861
I17
sS'mehandi'
p1862
I2
sS'lite'
p1863
I5
sS'document'
p1864
I3
sS'pan'
p1865
I9
sS'berry'
p1866
I4
sS'sterling'
p1867
I3
sS'exhaust'
p1868
I2
sS'finish'
p1869
I13
sS'apparels'
p1870
I3
sS'arden'
p1871
I5
sS'driver'
p1872
I4
sS'drives'
p1873
I2
sS'companion'
p1874
I4
sS'plantronics'
p1875
I4
sS'tadka'
p1876
I2
sS'fruit'
p1877
I25
sS'wired'
p1878
I60
sS'extender'
p1879
I2
sS'statue'
p1880
I3
sS'panchratna'
p1881
I2
sS'nourish'
p1882
I3
sS'violet'
p1883
I4
sS'wheels'
p1884
I6
sS'ikkat'
p1885
I2
sS'daytona'
p1886
I2
sS'nonstick'
p1887
I3
sS'charger'
p1888
I25
sS'cups'
p1889
I7
sS'know'
p1890
I2
sS'breeze'
p1891
I4
sS'bottle'
p1892
I61
sS'cce'
p1893
I2
sS'model'
p1894
I7
sS'modem'
p1895
I6
sS'tweens'
p1896
I3
sS'ishin'
p1897
I12
sS'summer'
p1898
I3
sS'outdoor'
p1899
I11
sS'azzaro'
p1900
I2
sS'damochi'
p1901
I2
sS'being'
p1902
I12
sS'excel'
p1903
I4
sS'neon'
p1904
I7
sS'crepe'
p1905
I18
sS'rest'
p1906
I5
sS'oxford'
p1907
I3
sS'touch'
p1908
I36
sS'polish'
p1909
I12
sS'flavor'
p1910
I3
sS'flotters'
p1911
I7
sS'speed'
p1912
I13
sS'refills'
p1913
I2
sS'rover'
p1914
I3
sS'lehenga'
p1915
I32
sS'grounded'
p1916
I3
sS'parad'
p1917
I2
sS'rose'
p1918
I17
sS'flo'
p1919
I2
sS'rosa'
p1920
I2
sS'brogue'
p1921
I2
sS'desktop'
p1922
I6
sS'lets'
p1923
I2
sS'treatment'
p1924
I4
sS'nav'
p1925
I2
sS'tunics'
p1926
I6
sS'videocon'
p1927
I4
sS'pill'
p1928
I3
sS'real'
p1929
I5
sS'psk'
p1930
I2
sS'around'
p1931
I2
sS'hut'
p1932
I3
sS'read'
p1933
I2
sS'vivel'
p1934
I2
sS'mop'
p1935
I15
sS'fridge'
p1936
I3
sS'dart'
p1937
I2
sS'dark'
p1938
I57
sS'penta'
p1939
I5
sS'semiformal'
p1940
I5
sS'vacuum'
p1941
I2
sS'amp'
p1942
I74
sS'walk'
p1943
I8
sS'lady'
p1944
I6
sS'rear'
p1945
I7
sS'shoeadda'
p1946
I3
sS'quadcopter'
p1947
I2
sS'kira'
p1948
I3
sS'fortune'
p1949
I3
sS'intel'
p1950
I5
sS'heritagefabs'
p1951
I2
sS'bandhani'
p1952
I4
sS'bracelet'
p1953
I27
sS'syska'
p1954
I2
sS'saledart'
p1955
I2
sS'lightning'
p1956
I4
sS'shutter'
p1957
I2
sS'intex'
p1958
I39
sS'blackberry'
p1959
I6
sS'mdzm'
p1960
I2
sS'clay'
p1961
I2
sS'neutrogena'
p1962
I4
sS'output'
p1963
I2
sS'tower'
p1964
I4
sS'inter'
p1965
I2
sS'hitansh'
p1966
I4
sS'brite'
p1967
I3
sS'sneaker'
p1968
I7
sS'ezy'
p1969
I2
sS'verbal'
p1970
I2
sS'doll'
p1971
I7
sS'titan'
p1972
I26
sS'ascend'
p1973
I2
sS'tvs'
p1974
I2
sS'shoetopia'
p1975
I7
sS'elements'
p1976
I2
sS'tvj'
p1977
I2
sS'snoring'
p1978
I3
sS'bluetooth'
p1979
I51
sS'matching'
p1980
I3
sS'penis'
p1981
I3
sS'moisturizing'
p1982
I4
sS'viral'
p1983
I3
sS'mafia'
p1984
I3
sS'wristband'
p1985
I2
sS'tote'
p1986
I8
sS'ddr'
p1987
I12
sS'tube'
p1988
I14
sS'cleanser'
p1989
I5
sS'exim'
p1990
I5
sS'sia'
p1991
I4
sS'models'
p1992
I2
sS'teardrop'
p1993
I7
sS'buddha'
p1994
I2
sS'knife'
p1995
I8
sS'measuring'
p1996
I2
sS'smiley'
p1997
I2
sS'epson'
p1998
I3
sS'power'
p1999
I85
sS'intimate'
p2000
I2
sS'dee'
p2001
I2
sS'herringbone'
p2002
I2
sS'each'
p2003
I9
sS'arts'
p2004
I2
sS'facewash'
p2005
I2
sS'xiaomi'
p2006
I16
sS'broken'
p2007
I2
sS'cube'
p2008
I4
sS'dicer'
p2009
I6
sS'patanjali'
p2010
I2
sS'tds'
p2011
I2
sS'morphy'
p2012
I8
sS'strainer'
p2013
I2
sS'bazaar'
p2014
I4
sS'leatherette'
p2015
I11
sS'manufacturer'
p2016
I2
sS'acc'
p2017
I3
sS'lens'
p2018
I22
sS'stone'
p2019
I13
sS'choc'
p2020
I2
sS'central'
p2021
I2
sS'casuals'
p2022
I13
sS'ace'
p2023
I6
sS'package'
p2024
I3
sS'island'
p2025
I5
sS'kerro'
p2026
I3
sS'insect'
p2027
I4
sS'slender'
p2028
I2
sS'side'
p2029
I17
sS'practical'
p2030
I4
sS'tazon'
p2031
I2
sS'theory'
p2032
I3
sS'pockets'
p2033
I2
sS'mixed'
p2034
I5
sS'rajasthani'
p2035
I3
sS'addons'
p2036
I2
sS'wills'
p2037
I4
sS'road'
p2038
I6
sS'chronograph'
p2039
I13
sS'heater'
p2040
I3
sS'ladies'
p2041
I17
sS'cambridge'
p2042
I2
sS'communication'
p2043
I2
sS'image'
p2044
I2
sS'earring'
p2045
I4
sS'organics'
p2046
I2
sS'hanger'
p2047
I6
sS'fizik'
p2048
I8
sS'strip'
p2049
I7
sS'fantasy'
p2050
I2
sS'your'
p2051
I14
sS'racquet'
p2052
I19
sS'mart'
p2053
I13
sS'grater'
p2054
I2
sS'her'
p2055
I2
sS'unisex'
p2056
I38
sS'gleam'
p2057
I2
sS'kwld'
p2058
I2
sS'styling'
p2059
I2
sS'desert'
p2060
I2
sS'italie'
p2061
I3
sS'stealth'
p2062
I2
sS'cats'
p2063
I3
sS'low'
p2064
I8
sS'garment'
p2065
I2
sS'hem'
p2066
I7
sS'valley'
p2067
I2
sS'energy'
p2068
I12
sS'thermosteel'
p2069
I16
sS'dsas'
p2070
I2
sS'handsfree'
p2071
I5
sS'fanatic'
p2072
I2
sS'whiteline'
p2073
I6
sS'eyeliner'
p2074
I3
sS'tripod'
p2075
I4
sS'principles'
p2076
I6
sS'beginners'
p2077
I2
sS'shapers'
p2078
I2
sS'cycle'
p2079
I2
sS'cottage'
p2080
I3
sS'technologies'
p2081
I2
sS'with'
p2082
I503
sS'corduroy'
p2083
I3
sS'spice'
p2084
I21
sS'football'
p2085
I13
sS'pull'
p2086
I3
sS'rush'
p2087
I7
sS'assn'
p2088
I6
sS'zeel'
p2089
I2
sS'newladieszone'
p2090
I2
sS'sukuma'
p2091
I4
sS'bucket'
p2092
I2
sS'alveera'
p2093
I2
sS'strawberry'
p2094
I8
sS'asquare'
p2095
I2
sS'ashwagandha'
p2096
I2
sS'toner'
p2097
I2
sS'flats'
p2098
I42
sS'benetton'
p2099
I48
sS'rust'
p2100
I7
sS'lowepro'
p2101
I2
sS'toilet'
p2102
I2
sS'taylor'
p2103
I4
sS'hillson'
p2104
I3
sS'delchi'
p2105
I6
sS'mayur'
p2106
I2
sS'sales'
p2107
I2
sS'watches'
p2108
I22
sS'kannada'
p2109
I2
sS'navy'
p2110
I139
sS'tshirt'
p2111
I30
sS'daily'
p2112
I19
sS'file'
p2113
I2
sS'sheath'
p2114
I7
sS'adsl'
p2115
I2
sS'rapido'
p2116
I7
sS'mastercook'
p2117
I2
sS'coconut'
p2118
I8
sS'cream'
p2119
I100
sS'footlodge'
p2120
I6
sS'soccer'
p2121
I2
sS'yoga'
p2122
I7
sS'backpacks'
p2123
I14
sS'drivers'
p2124
I2
sS'varanga'
p2125
I5
sS'yogi'
p2126
I3
sS'bhagalpuri'
p2127
I30
sS'rubber'
p2128
I13
sS'tight'
p2129
I3
sS'thermal'
p2130
I29
sS'protext'
p2131
I2
sS'mathematics'
p2132
I4
sS'you'
p2133
I7
sS'casseroles'
p2134
I3
sS'christy'
p2135
I3
sS'polar'
p2136
I2
sS'sukkhi'
p2137
I3
sS'vertex'
p2138
I5
sS'cordless'
p2139
I15
sS'herbs'
p2140
I3
sS'flower'
p2141
I25
sS'coverage'
p2142
I5
sS'terry'
p2143
I3
sS'brands'
p2144
I3
sS'selfcare'
p2145
I2
sS'brass'
p2146
I17
sS'pool'
p2147
I4
sS'regency'
p2148
I3
sS'lutein'
p2149
I3
sS'mesleep'
p2150
I13
sS'wifi'
p2151
I14
sS'mask'
p2152
I26
sS'ayurvedic'
p2153
I3
sS'dyed'
p2154
I3
sS'bogesi'
p2155
I2
sS'ajara'
p2156
I7
sS'windows'
p2157
I6
sS'mast'
p2158
I13
sS'mass'
p2159
I21
sS'adam'
p2160
I3
sS'felizer'
p2161
I3
sS'apparel'
p2162
I7
sS'overseas'
p2163
I4
sS'deluxe'
p2164
I13
sS'oral'
p2165
I2
sS'original'
p2166
I22
sS'external'
p2167
I12
sS'monte'
p2168
I23
sS'lace'
p2169
I37
sS'founder'
p2170
I2
sS'peacock'
p2171
I4
sS'lomani'
p2172
I2
sS'ceramic'
p2173
I8
sS'nikita'
p2174
I2
sS'alc'
p2175
I2
sS'month'
p2176
I6
sS'slimming'
p2177
I4
sS'dotcom'
p2178
I15
sS'disc'
p2179
I2
sS'sporty'
p2180
I4
sS'zinc'
p2181
I5
sS'fairness'
p2182
I13
sS'dish'
p2183
I12
sS'meditation'
p2184
I2
sS'disk'
p2185
I8
sS'religious'
p2186
I2
sS'skybags'
p2187
I4
sS'oreva'
p2188
I2
sS'carpet'
p2189
I13
sS'synthetic'
p2190
I18
sS'scp'
p2191
I3
sS'griffin'
p2192
I2
sS'robot'
p2193
I2
sS'multicoloured'
p2194
I18
sS'sparkling'
p2195
I4
sS'removal'
p2196
I2
sS'tail'
p2197
I3
sS'sml'
p2198
I2
sS'surya'
p2199
I2
sS'hooks'
p2200
I3
sS'safety'
p2201
I27
sS'mufti'
p2202
I2
sS'dolphy'
p2203
I2
sS'llp'
p2204
I2
sS'premium'
p2205
I77
sS'very'
p2206
I4
sS'rod'
p2207
I11
sS'paradise'
p2208
I4
sS'screwdriver'
p2209
I7
sS'fat'
p2210
I6
sS'coloured'
p2211
I27
sS'vera'
p2212
I4
sS'plaid'
p2213
I2
sS'diary'
p2214
I9
sS'bleach'
p2215
I4
sS'floater'
p2216
I3
sS'sony'
p2217
I73
sS'soles'
p2218
I4
sS'mpz'
p2219
I3
sS'vero'
p2220
I6
sS'washing'
p2221
I9
sS'cable'
p2222
I53
sS'louis'
p2223
I2
sS'bucci'
p2224
I21
sS'dongle'
p2225
I3
sS'large'
p2226
I27
sS'sang'
p2227
I3
sS'shimmy'
p2228
I2
sS'globalite'
p2229
I43
sS'plain'
p2230
I25
sS'small'
p2231
I17
sS'study'
p2232
I6
sS'fashion'
p2233
I142
sS'locomotive'
p2234
I4
sS'neoprene'
p2235
I2
sS'anand'
p2236
I2
sS'tek'
p2237
I2
sS'glucometer'
p2238
I4
sS'portable'
p2239
I21
sS'ten'
p2240
I5
sS'nightdress'
p2241
I7
sS'colossal'
p2242
I2
sS'tea'
p2243
I50
sS'revlon'
p2244
I4
sS'tee'
p2245
I12
sS'haat'
p2246
I6
sS'zippered'
p2247
I2
sS'knitted'
p2248
I5
sS'strung'
p2249
I9
sS'asp'
p2250
I2
sS'design'
p2251
I84
sS'nba'
p2252
I5
sS'casual'
p2253
I566
sS'sennheiser'
p2254
I2
sS'abc'
p2255
I3
sS'imported'
p2256
I14
sS'rooney'
p2257
I2
sS'nano'
p2258
I4
sS'clock'
p2259
I21
sS'peppermint'
p2260
I4
sS'sun'
p2261
I6
sS'brief'
p2262
I29
sS'burgundy'
p2263
I9
sS'crush'
p2264
I2
sS'suv'
p2265
I2
sS'abs'
p2266
I3
sS'dhoti'
p2267
I2
sS'racing'
p2268
I4
sS'contrast'
p2269
I4
sS'compact'
p2270
I11
sS'full'
p2271
I126
sS'healthiq'
p2272
I2
sS'coolpix'
p2273
I4
sS'empower'
p2274
I2
sS'loose'
p2275
I6
sS'jutti'
p2276
I2
sS'modular'
p2277
I6
sS'tracks'
p2278
I3
sS'threads'
p2279
I5
sS'straightener'
p2280
I11
sS'trunk'
p2281
I14
sS'strong'
p2282
I3
sS'table'
p2283
I30
sS'legend'
p2284
I6
sS'colored'
p2285
I19
sS'vlcc'
p2286
I10
sS'inspired'
p2287
I2
sS'enivid'
p2288
I2
sS'pick'
p2289
I9
sS'action'
p2290
I45
sS'cookie'
p2291
I2
sS'narrow'
p2292
I6
sS'options'
p2293
I2
sS'vaporizer'
p2294
I5
sS'trainer'
p2295
I2
sS'roshan'
p2296
I8
sS'adidas'
p2297
I60
sS'muffler'
p2298
I4
sS'skoda'
p2299
I3
sS'demin'
p2300
I2
sS'yuphoria'
p2301
I2
sS'deals'
p2302
I3
sS'cosmetic'
p2303
I3
sS'varsha'
p2304
I3
sS'towel'
p2305
I60
sS'vip'
p2306
I9
sS'xpress'
p2307
I2
sS'aptitude'
p2308
I5
sS'toys'
p2309
I3
sS'fabfirki'
p2310
I4
sS'florence'
p2311
I3
sS'select'
p2312
I18
sS'airwalk'
p2313
I3
sS'khan'
p2314
I3
sS'takes'
p2315
I2
sS'nehru'
p2316
I3
sS'maybelline'
p2317
I16
sS'two'
p2318
I30
sS'pearl'
p2319
I28
sS'artzz'
p2320
I3
sS'jivi'
p2321
I5
sS'fragrance'
p2322
I3
sS'gorgeous'
p2323
I4
sS'muscleblaze'
p2324
I6
sS'branded'
p2325
I10
sS'wiper'
p2326
I6
sS'more'
p2327
I5
sS'hypernation'
p2328
I4
sS'turbo'
p2329
I7
sS'sukun'
p2330
I3
sS'door'
p2331
I35
sS'flap'
p2332
I3
sS'ibps'
p2333
I3
sS'tester'
p2334
I2
sS'immersion'
p2335
I5
sS'company'
p2336
I8
sS'marks'
p2337
I4
sS'faucet'
p2338
I10
sS'tested'
p2339
I2
sS'takecare'
p2340
I2
sS'stethoscope'
p2341
I2
sS'stick'
p2342
I37
sS'celio'
p2343
I5
sS'foundations'
p2344
I2
sS'suction'
p2345
I3
sS'mounted'
p2346
I2
sS'grill'
p2347
I6
sS'fleece'
p2348
I16
sS'huma'
p2349
I3
sS'brunita'
p2350
I2
sS'science'
p2351
I5
sS'fast'
p2352
I5
sS'dev'
p2353
I2
sS'hindware'
p2354
I3
sS'deemark'
p2355
I2
sS'deo'
p2356
I30
sS'male'
p2357
I5
sS'lighter'
p2358
I3
sS'fappy'
p2359
I3
sS'mala'
p2360
I4
sS'beautiful'
p2361
I18
sS'transcend'
p2362
I7
sS'faber'
p2363
I5
sS'pony'
p2364
I2
sS'salted'
p2365
I4
sS'heat'
p2366
I8
sS'alba'
p2367
I9
sS'lightweight'
p2368
I2
sS'straightner'
p2369
I2
sS'cation'
p2370
I10
sS'hhb'
p2371
I3
sS'khadi'
p2372
I6
sS'smartphone'
p2373
I9
sS'mahindra'
p2374
I6
sS'estyle'
p2375
I3
sS'stackable'
p2376
I2
sS'magenta'
p2377
I3
sS'dress'
p2378
I176
sS'biotique'
p2379
I12
sS'axis'
p2380
I6
sS'csm'
p2381
I5
sS'filter'
p2382
I4
sS'dazzle'
p2383
I2
sS'court'
p2384
I6
sS'derma'
p2385
I2
sS'lyra'
p2386
I4
sS'hugo'
p2387
I5
sS'algorithms'
p2388
I2
sS'aujjessa'
p2389
I2
sS'cleansing'
p2390
I6
sS'xxxl'
p2391
I6
sS'menus'
p2392
I14
sS'venky'
p2393
I2
sS'argan'
p2394
I9
sS'plant'
p2395
I9
sS'sandwich'
p2396
I4
sS'kawachi'
p2397
I2
sS'mauve'
p2398
I2
sS'daisy'
p2399
I4
sS'herbals'
p2400
I14
sS'director'
p2401
I2
sS'blood'
p2402
I4
sS'gopal'
p2403
I2
sS'dumbells'
p2404
I2
sS'enthopia'
p2405
I2
sS'bloom'
p2406
I3
sS'flutter'
p2407
I2
sS'spiral'
p2408
I3
sS'short'
p2409
I24
sS'coat'
p2410
I22
sS'spoon'
p2411
I8
sS'krafts'
p2412
I2
sS'egk'
p2413
I3
sS'wrench'
p2414
I3
sS'shade'
p2415
I11
sS'crafts'
p2416
I3
sS'streetwear'
p2417
I4
sS'dream'
p2418
I6
sS'eagle'
p2419
I4
sS'warranty'
p2420
I6
sS'xolo'
p2421
I6
sS'infant'
p2422
I2
sS'pant'
p2423
I46
sS'september'
p2424
I2
sS'pepe'
p2425
I7
sS'mousse'
p2426
I2
sS'arta'
p2427
I3
sS'stylus'
p2428
I2
sS'held'
p2429
I14
sS'attitude'
p2430
I5
sS'paper'
p2431
I21
sS'scott'
p2432
I5
sS'hell'
p2433
I4
sS'avenue'
p2434
I17
sS'janasya'
p2435
I16
sS'talking'
p2436
I2
sS'style'
p2437
I67
sS'pens'
p2438
I3
sS'nhc'
p2439
I4
sS'general'
p2440
I11
sS'pronto'
p2441
I2
sS'bangle'
p2442
I3
sS'mattress'
p2443
I7
sS'blenders'
p2444
I2
sS'peanuts'
p2445
I2
sS'cool'
p2446
I40
sS'sauce'
p2447
I4
sS'phone'
p2448
I63
sS'evening'
p2449
I4
sS'food'
p2450
I33
sS'gadget'
p2451
I3
sS'cel'
p2452
I3
sS'hunter'
p2453
I3
sS'wega'
p2454
I4
sS'units'
p2455
I8
sS'casio'
p2456
I5
sS'eveready'
p2457
I17
sS'uhs'
p2458
I8
sS'foot'
p2459
I28
sS'hearing'
p2460
I4
sS'bollywood'
p2461
I45
sS'feet'
p2462
I7
sS'hook'
p2463
I8
sS'stripe'
p2464
I3
sS'fully'
p2465
I5
sS'rucf'
p2466
I2
sS'drake'
p2467
I2
sS'micro'
p2468
I30
sS'ecru'
p2469
I2
sS'fiber'
p2470
I4
sS'eva'
p2471
I5
sS'fairy'
p2472
I2
sS'out'
p2473
I5
sS'notes'
p2474
I2
sS'exquisite'
p2475
I4
sS'heavy'
p2476
I14
sS'status'
p2477
I9
sS'jacquard'
p2478
I11
sS'england'
p2479
I5
sS'chopper'
p2480
I17
sS'weight'
p2481
I27
sS'generation'
p2482
I6
sS'house'
p2483
I7
sS'fish'
p2484
I7
sS'hard'
p2485
I32
sS'idea'
p2486
I2
sS'organiser'
p2487
I2
sS'oil'
p2488
I68
sS'kajal'
p2489
I14
sS'vsquared'
p2490
I2
sS'quantum'
p2491
I6
sS'blues'
p2492
I4
sS'vulc'
p2493
I2
sS'pindia'
p2494
I5
sS'silky'
p2495
I2
sS'ftr'
p2496
I5
sS'lipstick'
p2497
I12
sS'gur'
p2498
I3
sS'miss'
p2499
I13
sS'comforters'
p2500
I3
sS'pigeon'
p2501
I8
sS'jolly'
p2502
I2
sS'wolverine'
p2503
I3
sS'daller'
p2504
I2
sS'fountain'
p2505
I4
sS'shipment'
p2506
I5
sS'jolla'
p2507
I2
sS'print'
p2508
I94
sS'whirlpool'
p2509
I3
sS'learners'
p2510
I2
sS'nutrus'
p2511
I3
sS'issue'
p2512
I2
sS'rhodium'
p2513
I7
sS'foam'
p2514
I9
sS'bass'
p2515
I7
sS'fabindia'
p2516
I2
sS'skdc'
p2517
I2
sS'horse'
p2518
I2
sS'pub'
p2519
I2
sS'protoner'
p2520
I3
sS'loafer'
p2521
I13
sS'base'
p2522
I18
sS'styles'
p2523
I3
sS'por'
p2524
I9
sS'tassels'
p2525
I3
sS'sbh'
p2526
I3
sS'asm'
p2527
I2
sS'fiat'
p2528
I2
sS'definition'
p2529
I3
sS'pairs'
p2530
I7
sS'thread'
p2531
I2
sS'babyliss'
p2532
I2
sS'running'
p2533
I82
sS'bloues'
p2534
I7
sS'blossom'
p2535
I5
sS'american'
p2536
I36
sS'canister'
p2537
I3
sS'stretchable'
p2538
I8
sS'bumper'
p2539
I6
sS'innerwear'
p2540
I3
sS'pot'
p2541
I6
sS'castle'
p2542
I6
sS'blush'
p2543
I5
sS'top'
p2544
I179
sS'copper'
p2545
I20
sS'cigarette'
p2546
I3
sS'feel'
p2547
I5
sS'bhai'
p2548
I4
sS'number'
p2549
I3
sS'fancy'
p2550
I19
sS'slipper'
p2551
I11
sS'vivekananda'
p2552
I2
sS'pop'
p2553
I22
sS'kobo'
p2554
I3
sS'wildhide'
p2555
I2
sS'alfa'
p2556
I2
sS'mist'
p2557
I5
sS'glitter'
p2558
I4
sS'radhika'
p2559
I2
sS'hdclair'
p2560
I2
sS'razor'
p2561
I2
sS'guess'
p2562
I2
sS'ermis'
p2563
I2
sS'jet'
p2564
I12
sS'paint'
p2565
I4
sS'introduction'
p2566
I7
sS'swipe'
p2567
I8
sS'tata'
p2568
I3
sS'comfy'
p2569
I5
sS'cartoon'
p2570
I10
sS'atasi'
p2571
I3
sS'station'
p2572
I3
sS'dfh'
p2573
I8
sS'storm'
p2574
I5
sS'jee'
p2575
I3
sS'ton'
p2576
I2
sS'essays'
p2577
I3
sS'compartment'
p2578
I2
sS'banana'
p2579
I5
sS'mobiles'
p2580
I2
sS'nutri'
p2581
I2
sS'option'
p2582
I2
sS'spykar'
p2583
I2
sS'pore'
p2584
I3
sS'anodized'
p2585
I3
sS'needle'
p2586
I2
sS'park'
p2587
I15
sS'eprilla'
p2588
I3
sS'pari'
p2589
I20
sS'discover'
p2590
I2
sS'draped'
p2591
I2
sS'havells'
p2592
I19
sS'treasures'
p2593
I3
sS'cartridges'
p2594
I2
sS'crop'
p2595
I6
sS'cufflink'
p2596
I3
sS'wayfarer'
p2597
I14
sS'albums'
p2598
I3
sS'pavechas'
p2599
I2
sS'dual'
p2600
I55
sS'grace'
p2601
I3
sS'relieves'
p2602
I2
sS'sordi'
p2603
I7
sS'nakoda'
p2604
I4
sS'freshner'
p2605
I3
sS'frock'
p2606
I5
sS'tooth'
p2607
I2
sS'polycotton'
p2608
I9
sS'aao'
p2609
I2
sS'aai'
p2610
I3
sS'grey'
p2611
I312
sS'recording'
p2612
I2
sS'tummy'
p2613
I9
sS'bansidhar'
p2614
I4
sS'cuff'
p2615
I3
sS'store'
p2616
I18
sS'macro'
p2617
I3
sS'dts'
p2618
I2
sS'chumbak'
p2619
I2
sS'toe'
p2620
I18
sS'mink'
p2621
I7
sS'builder'
p2622
I4
sS'voucher'
p2623
I5
sS'mickey'
p2624
I5
sS'kalki'
p2625
I4
sS'uiproduct'
p2626
I7
sS'kart'
p2627
I4
sS'multipurpose'
p2628
I11
sS'ssnl'
p2629
I2
sS'bhc'
p2630
I3
sS'greenwich'
p2631
I3
sS'juice'
p2632
I3
sS'husain'
p2633
I2
sS'fasnoya'
p2634
I2
sS'graffiti'
p2635
I6
sS'glen'
p2636
I3
sS'graphite'
p2637
I3
sS'morepen'
p2638
I8
sS'bht'
p2639
I2
sS'sell'
p2640
I2
sS'ballerina'
p2641
I4
sS'jaquar'
p2642
I2
sS'unstitched'
p2643
I41
sS'built'
p2644
I3
sS'lib'
p2645
I2
sS'ranger'
p2646
I2
sS'lil'
p2647
I5
sS'nighty'
p2648
I11
sS'self'
p2649
I64
sS'freshener'
p2650
I12
sS'camouflage'
p2651
I4
sS'reliance'
p2652
I2
sS'accupressure'
p2653
I3
sS'liv'
p2654
I2
sS'internal'
p2655
I6
sS'lip'
p2656
I21
sS'parchayee'
p2657
I5
sS'iball'
p2658
I14
sS'brace'
p2659
I2
sS'tool'
p2660
I13
sS'play'
p2661
I11
sS'brendon'
p2662
I2
sS'haltung'
p2663
I7
sS'electric'
p2664
I37
sS'cargo'
p2665
I6
sS'sweatshirts'
p2666
I55
sS'english'
p2667
I112
sS'salmon'
p2668
I3
sS'most'
p2669
I2
sS'virus'
p2670
I5
sS'charm'
p2671
I2
sS'amar'
p2672
I3
sS'watt'
p2673
I27
sS'alpha'
p2674
I10
sS'prestige'
p2675
I27
sS'refrigerator'
p2676
I2
sS'mach'
p2677
I5
sS'trackpant'
p2678
I6
sS'grams'
p2679
I7
sS'flite'
p2680
I2
sS'mobile'
p2681
I55
sS'shilpkart'
p2682
I2
sS'clear'
p2683
I9
sS'opaque'
p2684
I2
sS'cover'
p2685
I306
sS'setof'
p2686
I2
sS'traditional'
p2687
I16
sS'part'
p2688
I2
sS'guava'
p2689
I3
sS'clean'
p2690
I4
sS'fashions'
p2691
I17
sS'asus'
p2692
I11
sS'rechargeable'
p2693
I19
sS'blend'
p2694
I10
sS'microsoft'
p2695
I11
sS'stones'
p2696
I2
sS'hrithik'
p2697
I7
sS'amaze'
p2698
I8
sS'gold'
p2699
I115
sS'sparrow'
p2700
I5
sS'blended'
p2701
I9
sS'tuner'
p2702
I3
sS'moroccan'
p2703
I3
sS'deep'
p2704
I9
sS'bestrium'
p2705
I2
sS'crayon'
p2706
I2
sS'frocks'
p2707
I2
sS'cds'
p2708
I2
sS'coaster'
p2709
I4
sS'melody'
p2710
I2
sS'fine'
p2711
I2
sS'ramzy'
p2712
I3
sS'blender'
p2713
I15
sS'impact'
p2714
I4
sS'ipad'
p2715
I10
sS'indicator'
p2716
I2
sS'thisrupt'
p2717
I2
sS'keychain'
p2718
I12
sS'gamepad'
p2719
I4
sS'kada'
p2720
I5
sS'scooter'
p2721
I12
sS'camel'
p2722
I8
sS'ambaji'
p2723
I4
sS'powerbank'
p2724
I4
sS'indian'
p2725
I26
sS'condom'
p2726
I4
sS'money'
p2727
I2
sS'columns'
p2728
I2
sS'bhama'
p2729
I3
sS'dosa'
p2730
I2
sS'hit'
p2731
I2
sS'adda'
p2732
I6
sS'waterproof'
p2733
I14
sS'domestic'
p2734
I2
sS'express'
p2735
I4
sS'sunny'
p2736
I2
sS'grocery'
p2737
I4
sS'famous'
p2738
I6
sS'capsule'
p2739
I4
sS'lenovo'
p2740
I52
sS'hid'
p2741
I2
sS'compass'
p2742
I5
sS'tunic'
p2743
I21
sS'silk'
p2744
I96
sS'winsome'
p2745
I2
sS'sleeve'
p2746
I86
sS'anouk'
p2747
I8
sS'tracksuit'
p2748
I11
sS'batteries'
p2749
I3
sS'gwalior'
p2750
I3
sS'perfume'
p2751
I30
sS'banking'
p2752
I5
sS'balaji'
p2753
I3
sS'gloves'
p2754
I42
sS'grabado'
p2755
I2
sS'mahavir'
p2756
I12
sS'body'
p2757
I90
sS'duty'
p2758
I4
sS'set'
p2759
I619
sS'ganesha'
p2760
I3
sS'bikenwear'
p2761
I2
sS'jade'
p2762
I2
sS'rhinestone'
p2763
I5
sS'ayurveda'
p2764
I3
sS'mantra'
p2765
I3
sS'lion'
p2766
I2
sS'individual'
p2767
I4
sS'aztec'
p2768
I3
sS'sea'
p2769
I8
sS'caprese'
p2770
I4
sS'camerii'
p2771
I4
sS'modish'
p2772
I3
sS'comfort'
p2773
I15
sS'analog'
p2774
I195
sS'kraasa'
p2775
I5
sS'glamr'
p2776
I2
sS'enveloped'
p2777
I2
sS'practice'
p2778
I8
sS'revolution'
p2779
I4
sS'hdmi'
p2780
I7
sS'expert'
p2781
I3
sS'ktm'
p2782
I3
sS'satin'
p2783
I44
sS'wow'
p2784
I3
sS'burner'
p2785
I7
sS'klub'
p2786
I6
sS'case'
p2787
I38
sS'vedanta'
p2788
I3
sS'paisa'
p2789
I3
sS'riti'
p2790
I8
sS'blid'
p2791
I2
sS'champagne'
p2792
I4
sS'goodlook'
p2793
I2
sS'wob'
p2794
I3
sS'cancelling'
p2795
I2
sS'solo'
p2796
I6
sS'unisopent'
p2797
I6
sS'creatine'
p2798
I3
sS'biba'
p2799
I4
sS'yepme'
p2800
I225
sS'sole'
p2801
I4
sS'unistuff'
p2802
I2
sS'spray'
p2803
I31
sS'zipper'
p2804
I11
sS'bronze'
p2805
I6
sS'jarl'
p2806
I3
sS'both'
p2807
I2
sS'ptna'
p2808
I2
sS'blazer'
p2809
I16
sS'mega'
p2810
I7
sS'technica'
p2811
I2
sS'tapered'
p2812
I4
sS'invictus'
p2813
I2
sS'crt'
p2814
I2
sS'henley'
p2815
I17
sS'sensitive'
p2816
I4
sS'connection'
p2817
I2
sS'suede'
p2818
I8
sS'boxers'
p2819
I6
sS'vault'
p2820
I8
sS'protector'
p2821
I16
sS'blaze'
p2822
I3
sS'cozi'
p2823
I2
sS'tgp'
p2824
I6
sS'lavie'
p2825
I4
sS'bell'
p2826
I5
sS'battery'
p2827
I21
sS'sweet'
p2828
I6
sS'cheston'
p2829
I2
sS'community'
p2830
I2
sS'gypsy'
p2831
I2
sS'badminton'
p2832
I26
sS'laxmi'
p2833
I5
sS'village'
p2834
I2
sS'ferrero'
p2835
I3
sS'belt'
p2836
I77
sS'catwalk'
p2837
I16
sS'souffle'
p2838
I3
sS'suspenders'
p2839
I2
sS'java'
p2840
I2
sS'duo'
p2841
I3
sS'stamp'
p2842
I2
sS'political'
p2843
I3
sS'corelle'
p2844
I7
sS'ske'
p2845
I2
sS'secret'
p2846
I3
sS'brick'
p2847
I5
sS'delights'
p2848
I2
sS'rosy'
p2849
I2
sS'firm'
p2850
I3
sS'alto'
p2851
I5
sS'vans'
p2852
I4
sS'ram'
p2853
I10
sS'champion'
p2854
I3
sS'firk'
p2855
I2
sS'packs'
p2856
I2
sS'fire'
p2857
I4
sS'pencils'
p2858
I2
sS'wheeler'
p2859
I12
sS'gas'
p2860
I9
sS'precision'
p2861
I2
sS'krazzybuy'
p2862
I9
sS'silencer'
p2863
I2
sS'racer'
p2864
I4
sS'sleeves'
p2865
I19
sS'folklore'
p2866
I2
sS'porter'
p2867
I2
sS'funk'
p2868
I3
sS'plants'
p2869
I2
sS'ridhima'
p2870
I2
sS'loom'
p2871
I5
sS'fur'
p2872
I9
sS'look'
p2873
I8
sS'abof'
p2874
I15
sS'padukone'
p2875
I4
sS'solid'
p2876
I211
sS'ski'
p2877
I2
sS'straight'
p2878
I17
sS'tip'
p2879
I4
sS'rope'
p2880
I6
sS'pace'
p2881
I2
sS'bikini'
p2882
I6
sS'kick'
p2883
I2
sS'pearls'
p2884
I8
sS'fun'
p2885
I3
sS'rangsthali'
p2886
I2
sS'biking'
p2887
I4
sS'guide'
p2888
I14
sS'stoles'
p2889
I4
sS'pack'
p2890
I446
sS'grip'
p2891
I16
sS'century'
p2892
I3
sS'shades'
p2893
I4
sS'calculator'
p2894
I3
sS'kurtis'
p2895
I10
sS'moto'
p2896
I14
sS'rin'
p2897
I2
sS'buckaroo'
p2898
I2
sS'creators'
p2899
I2
sS'rid'
p2900
I134
sS'vox'
p2901
I3
sS'monroe'
p2902
I2
sS'chase'
p2903
I9
sS'decor'
p2904
I8
sS'pyjamas'
p2905
I2
sS'shirt'
p2906
I416
sS'shoba'
p2907
I2
sS'trial'
p2908
I2
sS'eyewear'
p2909
I2
sS'textile'
p2910
I2
sS'salona'
p2911
I6
sS'bangles'
p2912
I5
sS'grand'
p2913
I16
sS'serum'
p2914
I8
sS'ray'
p2915
I6
sS'composition'
p2916
I3
sS'day'
p2917
I19
sS'lid'
p2918
I17
sS'strips'
p2919
I34
sS'knitting'
p2920
I2
sS'tupperware'
p2921
I92
sS'cartridge'
p2922
I4
sS'yuva'
p2923
I3
sS'leopard'
p2924
I4
sS'infuser'
p2925
I3
sS'nights'
p2926
I2
sS'purpose'
p2927
I13
sS'zoha'
p2928
I2
sS'assortment'
p2929
I2
sS'sandals'
p2930
I127
sS'probiker'
p2931
I2
sS'alphaboostpro'
p2932
I2
sS'gsq'
p2933
I2
sS'lower'
p2934
I7
sS'nylon'
p2935
I24
sS'nillkin'
p2936
I2
sS'flared'
p2937
I2
sS'dooda'
p2938
I6
sS'globus'
p2939
I3
sS'dancing'
p2940
I4
sS'rodid'
p2941
I4
sS'honor'
p2942
I10
sS'gsc'
p2943
I2
sS'solemio'
p2944
I2
sS'wagharia'
p2945
I2
sS'swiss'
p2946
I5
sS'wedges'
p2947
I39
sS'chemistry'
p2948
I7
sS'gsm'
p2949
I8
sS'jbj'
p2950
I2
sS'disha'
p2951
I2
sS'facial'
p2952
I16
sS'rajasthan'
p2953
I4
sS'morsel'
p2954
I3
sS'competitive'
p2955
I4
sS'aroma'
p2956
I7
sS'shape'
p2957
I15
sS'sam'
p2958
I4
sS'roasted'
p2959
I5
sS'jbl'
p2960
I6
sS'hotpot'
p2961
I4
sS'sandal'
p2962
I12
sS'cur'
p2963
I3
sS'cuffs'
p2964
I2
sS'cup'
p2965
I8
sS'jaanvi'
p2966
I2
sS'chest'
p2967
I3
sS'subjects'
p2968
I2
sS'amway'
p2969
I18
sS'snap'
p2970
I5
sS'aimil'
p2971
I5
sS'cum'
p2972
I7
sS'ruled'
p2973
I2
sS'anklets'
p2974
I3
sS'chess'
p2975
I2
sS'bin'
p2976
I3
sS'sleepwell'
p2977
I2
sS'clutches'
p2978
I2
sS'oriflame'
p2979
I3
sS'emergency'
p2980
I5
sS'big'
p2981
I18
sS'couple'
p2982
I2
sS'bib'
p2983
I9
sS'game'
p2984
I11
sS'motorola'
p2985
I10
sS'manforce'
p2986
I5
sS'jumpsuit'
p2987
I11
sS'shopdayz'
p2988
I2
sS'bit'
p2989
I2
sS'wings'
p2990
I2
sS'formal'
p2991
I197
sS'wrogn'
p2992
I2
sS'ponds'
p2993
I5
sS'vests'
p2994
I20
sS'stylist'
p2995
I3
sS'semi'
p2996
I76
sS'shaped'
p2997
I6
sS'proline'
p2998
I10
sS'pillar'
p2999
I2
sS'hornbull'
p3000
I3
sS'glove'
p3001
I3
sS'rider'
p3002
I10
sS'shaper'
p3003
I12
sS'arthur'
p3004
I3
sS'donna'
p3005
I2
sS'popular'
p3006
I3
sS'stylish'
p3007
I44
sS'bamboo'
p3008
I7
sS'sequin'
p3009
I3
sS'shayona'
p3010
I4
sS'google'
p3011
I2
sS'spring'
p3012
I2
sS'creation'
p3013
I23
sS'instruments'
p3014
I2
sS'pierre'
p3015
I3
sS'bounce'
p3016
I2
sS'alanti'
p3017
I3
sS'lips'
p3018
I3
sS'mighty'
p3019
I2
sS'mirror'
p3020
I10
sS'trendy'
p3021
I20
sS'candle'
p3022
I4
sS'trendz'
p3023
I5
sS'brent'
p3024
I2
sS'uniqchoice'
p3025
I4
sS'ganesh'
p3026
I8
sS'scale'
p3027
I28
sS'heinz'
p3028
I2
sS'jewelry'
p3029
I4
sS'maroon'
p3030
I75
sS'twinkle'
p3031
I2
sS'pet'
p3032
I6
sS'apf'
p3033
I2
sS'rucksack'
p3034
I5
sS'nynty'
p3035
I2
sS'per'
p3036
I2
sS'technotech'
p3037
I2
sS'customize'
p3038
I2
sS'pen'
p3039
I72
sS'sneakers'
p3040
I35
sS'bootwale'
p3041
I2
sS'slash'
p3042
I2
sS'peg'
p3043
I2
sS'temple'
p3044
I3
sS'eyeglass'
p3045
I2
sS'concealer'
p3046
I3
sS'run'
p3047
I4
sS'bulbs'
p3048
I14
sS'booklet'
p3049
I2
sS'processing'
p3050
I2
sS'rug'
p3051
I2
sS'oek'
p3052
I2
sS'step'
p3053
I8
sS'choli'
p3054
I33
sS'loreal'
p3055
I11
sS'incynk'
p3056
I4
sS'from'
p3057
I22
sS'raspberry'
p3058
I2
sS'intense'
p3059
I9
sS'usb'
p3060
I102
sS'shine'
p3061
I11
sS'faith'
p3062
I2
sS'goods'
p3063
I2
sS'classico'
p3064
I2
sS'toes'
p3065
I2
sS'containers'
p3066
I32
sS'ranjit'
p3067
I2
sS'tie'
p3068
I23
sS'bgr'
p3069
I6
sS'soulflower'
p3070
I7
sS'breasted'
p3071
I7
sS'womens'
p3072
I20
sS'block'
p3073
I2
sS'pollution'
p3074
I4
sS'repair'
p3075
I7
sS'hudson'
p3076
I4
sS'zikrak'
p3077
I5
sS'biocare'
p3078
I2
sS'stitched'
p3079
I67
sS'acm'
p3080
I2
sS'disposable'
p3081
I4
sS'carlton'
p3082
I10
sS'corsair'
p3083
I2
sS'exerciser'
p3084
I2
sS'hubberholme'
p3085
I2
sS'sized'
p3086
I4
sS'clutch'
p3087
I17
sS'diwan'
p3088
I8
sS'robust'
p3089
I2
sS'jockey'
p3090
I44
sS'story'
p3091
I24
sS'jewellery'
p3092
I20
sS'mythic'
p3093
I2
sS'baltra'
p3094
I2
sS'brut'
p3095
I2
sS'question'
p3096
I4
sS'long'
p3097
I40
sS'soch'
p3098
I4
sS'handbook'
p3099
I3
sS'suit'
p3100
I119
sS'harem'
p3101
I5
sS'inches'
p3102
I9
sS'poster'
p3103
I3
sS'lint'
p3104
I4
sS'stunning'
p3105
I2
sS'lino'
p3106
I2
sS'boys'
p3107
I64
sS'mcp'
p3108
I2
sS'shapewear'
p3109
I5
sS'link'
p3110
I17
sS'atom'
p3111
I3
sS'sdl'
p3112
I3
sS'line'
p3113
I20
sS'active'
p3114
I23
sS'dull'
p3115
I5
sS'penguin'
p3116
I3
sS'groovy'
p3117
I3
sS'hair'
p3118
I88
sS'originals'
p3119
I2
sS'skull'
p3120
I8
sS'circuits'
p3121
I2
sS'apricot'
p3122
I3
sS'detachable'
p3123
I7
sS'targus'
p3124
I2
sS'revitalizing'
p3125
I2
sS'planet'
p3126
I2
sS'rigoglioso'
p3127
I2
sS'jewel'
p3128
I23
sS'jumbo'
p3129
I4
sS'export'
p3130
I3
sS'groove'
p3131
I2
sS'georgette'
p3132
I164
sS'faas'
p3133
I3
sS'uber'
p3134
I3
sS'analogue'
p3135
I2
sS'inch'
p3136
I53
sS'pencil'
p3137
I8
sS'metal'
p3138
I28
sS'estilo'
p3139
I2
sS'wonderkart'
p3140
I2
sS'mojaris'
p3141
I2
sS'engineering'
p3142
I8
sS'nautical'
p3143
I2
sS'inalsa'
p3144
I2
sS'curl'
p3145
I2
sS'cotton'
p3146
I575
sS'sandalwood'
p3147
I5
sS'rainbow'
p3148
I7
sS'lemon'
p3149
I15
sS'nag'
p3150
I4
sS'peach'
p3151
I26
sS'hanes'
p3152
I6
sS'tara'
p3153
I10
sS'water'
p3154
I60
sS'sheetal'
p3155
I2
sS'saffron'
p3156
I2
sS'gry'
p3157
I8
sS'electrical'
p3158
I7
sS'dungarees'
p3159
I2
sS'grn'
p3160
I5
sS'autokraftz'
p3161
I6
sS'xtag'
p3162
I2
sS'mock'
p3163
I2
sS'revision'
p3164
I2
sS'shrug'
p3165
I20
sS'sutra'
p3166
I13
sS'trouser'
p3167
I35
sS'scrub'
p3168
I13
sS'mustard'
p3169
I5
sS'smileu'
p3170
I4
sS'actiza'
p3171
I3
sS'sdxc'
p3172
I2
sS'printing'
p3173
I2
sS'casetech'
p3174
I3
sS'bagua'
p3175
I2
sS'bianca'
p3176
I3
sS'salondry'
p3177
I3
sS'slice'
p3178
I13
sS'sareeka'
p3179
I4
sS'leaf'
p3180
I10
sS'aleron'
p3181
I2
sS'sides'
p3182
I5
sS'earphones'
p3183
I8
sS'mood'
p3184
I2
sS'polyamide'
p3185
I3
sS'notch'
p3186
I2
sS'clickroo'
p3187
I2
sS'cooker'
p3188
I20
sS'physics'
p3189
I5
sS'age'
p3190
I5
sS'svb'
p3191
I4
sS'orbit'
p3192
I2
sS'tandoor'
p3193
I4
sS'<PAD>'
p3194
F0.0
sS'cookware'
p3195
I21
sS'dot'
p3196
I17
sS'fresh'
p3197
I30
sS'pret'
p3198
I2
sS'wipro'
p3199
I9
sS'code'
p3200
I8
sS'partial'
p3201
I7
sS'selfie'
p3202
I16
sS'beebay'
p3203
I2
sS'homesmart'
p3204
I3
sS'scratch'
p3205
I5
sS'amplifier'
p3206
I2
sS'softel'
p3207
I3
sS'cobalt'
p3208
I2
sS'priya'
p3209
I5
sS'edp'
p3210
I4
sS'renown'
p3211
I2
sS'edt'
p3212
I17
sS'gossip'
p3213
I2
sS'maleboosterpro'
p3214
I4
sS'saree'
p3215
I209
sS'coloressence'
p3216
I3
sS'magique'
p3217
I2
sS'pioneer'
p3218
I5
sS'suave'
p3219
I2
sS'young'
p3220
I6
sS'suits'
p3221
I5
sS'anshul'
p3222
I7
sS'donic'
p3223
I2
sS'cradle'
p3224
I3
sS'elligator'
p3225
I10
sS'starter'
p3226
I3
sS'masculine'
p3227
I2
sS'kriaa'
p3228
I10
sS'hipster'
p3229
I8
sS'friendly'
p3230
I2
sS'sovam'
p3231
I2
sS'family'
p3232
I6
sS'garden'
p3233
I2
sS'outside'
p3234
I3
sS'deepika'
p3235
I3
sS'vipul'
p3236
I2
sS'felicita'
p3237
I2
sS'kitty'
p3238
I2
sS'tulsi'
p3239
I10
sS'wave'
p3240
I3
sS'assam'
p3241
I2
sS'electron'
p3242
I3
sS'kolorfish'
p3243
I2
sS'mixing'
p3244
I3
sS'impex'
p3245
I3
sS'drinking'
p3246
I3
sS'tutu'
p3247
I6
sS'minerals'
p3248
I3
sS'tri'
p3249
I3
sS'polyester'
p3250
I79
sS'magic'
p3251
I30
sS'evo'
p3252
I3
sS'lynda'
p3253
I2
sS'button'
p3254
I8
sS'shock'
p3255
I13
sS'magik'
p3256
I2
sS'eve'
p3257
I3
sS'nourishing'
p3258
I11
sS'leader'
p3259
I2
sS'try'
p3260
I5
sS'kanticoy'
p3261
I3
sS'race'
p3262
I4
sS'min'
p3263
I2
sS'kit'
p3264
I53
sS'iba'
p3265
I4
sS'olay'
p3266
I8
sS'shringaar'
p3267
I2
sS'rack'
p3268
I7
sS'solutions'
p3269
I2
sS'cfl'
p3270
I11
sS'rts'
p3271
I2
sS'senorita'
p3272
I4
sS'jalwa'
p3273
I2
sS'frost'
p3274
I5
sS'milano'
p3275
I2
sS'boots'
p3276
I71
sS'alvaro'
p3277
I5
sS'noise'
p3278
I6
sS'video'
p3279
I9
sS'booth'
p3280
I5
sS'earth'
p3281
I2
sS'denims'
p3282
I7
sS'wheat'
p3283
I2
sS'stepper'
p3284
I2
sS'carlo'
p3285
I23
sS'click'
p3286
I6
sS'victor'
p3287
I6
sS'gainers'
p3288
I8
sS'junior'
p3289
I9
sS'wallet'
p3290
I87
sS'multimedia'
p3291
I13
sS'espresso'
p3292
I2
sS'vampire'
p3293
I3
sS'practices'
p3294
I2
sS'cell'
p3295
I8
sS'huawei'
p3296
I15
sS'kafe'
p3297
I3
sS'twins'
p3298
I3
sS'attire'
p3299
I2
sS'collins'
p3300
I3
sS'bird'
p3301
I3
sS'exercise'
p3302
I2
sS'wowcreation'
p3303
I3
sS'decors'
p3304
I2
sS'led'
p3305
I119
sS'lee'
p3306
I43
sS'degree'
p3307
I6
sS'leg'
p3308
I6
sS'rrtcwl'
p3309
I3
sS'gathered'
p3310
I3
sS'scrapper'
p3311
I2
sS'punch'
p3312
I3
sS'leo'
p3313
I2
sS'safex'
p3314
I5
sS'packing'
p3315
I2
sS'sink'
p3316
I7
sS'euro'
p3317
I23
sS'sexy'
p3318
I6
sS'garmor'
p3319
I4
sS'eyeconic'
p3320
I3
sS'extreme'
p3321
I4
sS'capsules'
p3322
I32
sS'vinegar'
p3323
I5
sS'great'
p3324
I3
sS'engage'
p3325
I23
sS'genx'
p3326
I6
sS'goodies'
p3327
I2
sS'metre'
p3328
I2
sS'calvin'
p3329
I6
sS'products'
p3330
I66
sS'ogx'
p3331
I2
sS'derby'
p3332
I18
sS'vajazzle'
p3333
I3
sS'gene'
p3334
I5
sS'makes'
p3335
I2
sS'maker'
p3336
I19
sS'pajama'
p3337
I3
sS'examinations'
p3338
I3
sS'apple'
p3339
I54
sS'spy'
p3340
I6
sS'win'
p3341
I5
sS'flange'
p3342
I4
sS'shuberry'
p3343
I2
sS'boxy'
p3344
I2
sS'limo'
p3345
I2
sS'kurti'
p3346
I101
sS'oval'
p3347
I16
sS'sarees'
p3348
I48
sS'nulife'
p3349
I2
sS'tools'
p3350
I5
sS'cloud'
p3351
I8
sS'lime'
p3352
I8
sS'usf'
p3353
I2
sS'use'
p3354
I9
sS'nexx'
p3355
I2
sS'feb'
p3356
I4
sS'hippie'
p3357
I2
sS'zip'
p3358
I5
sS'farenheit'
p3359
I3
sS'doodle'
p3360
I2
sS'chocolates'
p3361
I2
sS'flat'
p3362
I15
sS'hydra'
p3363
I2
sS'capri'
p3364
I5
sS'camera'
p3365
I22
sS'examination'
p3366
I3
sS'fliptop'
p3367
I7
sS'vehicle'
p3368
I5
sS'toy'
p3369
I13
sS'nexa'
p3370
I3
sS'aquatouch'
p3371
I2
sS'chip'
p3372
I3
sS'hydro'
p3373
I3
sS'charcoal'
p3374
I30
sS'sritika'
p3375
I3
sS'pretty'
p3376
I3
sS'trail'
p3377
I2
sS'gambe'
p3378
I2
sS'rabbit'
p3379
I5
sS'baby'
p3380
I38
sS'iii'
p3381
I10
sS'casserole'
p3382
I17
sS'women'
p3383
I506
sS'customer'
p3384
I2
sS'parachute'
p3385
I2
sS'balls'
p3386
I2
sS'extension'
p3387
I9
sS'duster'
p3388
I3
sS'this'
p3389
I3
sS'ride'
p3390
I2
sS'saddle'
p3391
I2
sS'unistar'
p3392
I10
sS'pour'
p3393
I3
sS'lumber'
p3394
I2
sS'thin'
p3395
I4
sS'drill'
p3396
I6
sS'meet'
p3397
I2
sS'vheelocityin'
p3398
I2
sS'sainath'
p3399
I2
sS'proof'
p3400
I2
sS'control'
p3401
I12
sS'hip'
p3402
I6
sS'tab'
p3403
I15
sS'links'
p3404
I2
sS'almirah'
p3405
I2
sS'process'
p3406
I2
sS'lock'
p3407
I41
sS'sildenafil'
p3408
I3
sS'slim'
p3409
I144
sS'nivea'
p3410
I45
sS'warmers'
p3411
I2
sS'pieces'
p3412
I30
sS'high'
p3413
I28
sS'wonderchef'
p3414
I9
sS'mixer'
p3415
I7
sS'slip'
p3416
I35
sS'chic'
p3417
I5
sS'bones'
p3418
I2
sS'triangle'
p3419
I2
sS'tan'
p3420
I58
sS'locking'
p3421
I5
sS'skirt'
p3422
I16
sS'autobiography'
p3423
I3
sS'educational'
p3424
I3
sS'beaded'
p3425
I2
sS'colorful'
p3426
I2
sS'defective'
p3427
I7
sS'fastrack'
p3428
I39
sS'vibe'
p3429
I7
sS'clothing'
p3430
I7
sS'cardin'
p3431
I3
sS'traders'
p3432
I8
sS'bmw'
p3433
I2
sS'carrier'
p3434
I7
sS'goodwyn'
p3435
I2
sS'craze'
p3436
I2
sS'animal'
p3437
I5
sS'bandana'
p3438
I3
sS'pantaloons'
p3439
I13
sS'sim'
p3440
I44
sS'embellished'
p3441
I29
sS'durga'
p3442
I2
sS'blocks'
p3443
I2
sS'womenus'
p3444
I8
sS'halter'
p3445
I2
sS'sir'
p3446
I8
sS'faucets'
p3447
I6
sS'watch'
p3448
I311
sS'legging'
p3449
I17
sS'collection'
p3450
I44
sS'dealbindaas'
p3451
I3
sS'helmet'
p3452
I20
sS'notebook'
p3453
I17
sS'wrist'
p3454
I15
sS'ethnic'
p3455
I16
sS'tier'
p3456
I2
sS'ties'
p3457
I2
sS'anabolic'
p3458
I4
sS'induction'
p3459
I22
sS'supersoft'
p3460
I2
sS'revo'
p3461
I2
sS'light'
p3462
I75
sS'cosco'
p3463
I13
sS'guru'
p3464
I7
sS'cutlery'
p3465
I5
sS'sanwara'
p3466
I2
sS'zakk'
p3467
I2
sS'hobo'
p3468
I2
sS'scoop'
p3469
I2
sS'chief'
p3470
I6
sS'classy'
p3471
I4
sS'alloy'
p3472
I23
sS'swimming'
p3473
I2
sS'martini'
p3474
I3
sS'linea'
p3475
I3
sS'ubvin'
p3476
I4
sS'amber'
p3477
I2
sS'unbreakable'
p3478
I2
sS'ecostay'
p3479
I2
sS'vizio'
p3480
I4
sS'meter'
p3481
I17
sS'spatula'
p3482
I3
sS'motorcycle'
p3483
I11
sS'austrian'
p3484
I5
sS'libas'
p3485
I4
sS'castagnino'
p3486
I3
sS'galaxy'
p3487
I46
sS'perfect'
p3488
I14
sS'chemical'
p3489
I2
sS'nightwear'
p3490
I12
sS'cotts'
p3491
I2
sS'webed'
p3492
I2
sS'tsg'
p3493
I10
sS'lamp'
p3494
I12
sS'drs'
p3495
I2
sS'pullover'
p3496
I4
sS'decal'
p3497
I9
sS'marsh'
p3498
I2
sS'tsx'
p3499
I7
sS'garg'
p3500
I2
sS'shopfab'
p3501
I2
sS'nutrigain'
p3502
I2
sS'pixel'
p3503
I2
sS'forest'
p3504
I5
sS'flex'
p3505
I13
sS'designs'
p3506
I5
sS'indiashopers'
p3507
I3
sS'skater'
p3508
I2
sS'goldnera'
p3509
I3
sS'auto'
p3510
I16
sS'nokia'
p3511
I30
sS'fiesta'
p3512
I5
sS'handi'
p3513
I3
sS'toshiba'
p3514
I8
sS'khantil'
p3515
I5
sS'provogue'
p3516
I5
sS'kiss'
p3517
I3
sS'front'
p3518
I13
sS'bar'
p3519
I20
sS'transparent'
p3520
I12
sS'bas'
p3521
I3
sS'wrangler'
p3522
I16
sS'blanc'
p3523
I5
sS'delicious'
p3524
I2
sS'env'
p3525
I2
sS'inizio'
p3526
I2
sS'concave'
p3527
I3
sS'godrej'
p3528
I12
sS'moda'
p3529
I11
sS'whatshop'
p3530
I2
sS'lingerie'
p3531
I7
sS'renault'
p3532
I2
sS'mode'
p3533
I4
sS'surat'
p3534
I2
sS'modi'
p3535
I5
sS'ambrane'
p3536
I7
sS'tray'
p3537
I14
sS'tracer'
p3538
I4
sS'glasses'
p3539
I5
sS'rpindia'
p3540
I3
sS'rudraksh'
p3541
I3
sS'treecase'
p3542
I2
sS'jbn'
p3543
I5
sS'lilac'
p3544
I2
sS'globe'
p3545
I3
sS'magnifier'
p3546
I5
sS'pantry'
p3547
I3
sS'multicolored'
p3548
I9
sS'shivanifashion'
p3549
I2
sS'sachets'
p3550
I4
sS'vastra'
p3551
I3
sS'babeezworld'
p3552
I2
sS'measure'
p3553
I4
sS'sdudz'
p3554
I2
sS'sweatshirt'
p3555
I97
sS'bay'
p3556
I4
sS'special'
p3557
I11
sS'mat'
p3558
I20
sS'matt'
p3559
I2
sS'deodorants'
p3560
I5
sS'matrix'
p3561
I9
sS'frontier'
p3562
I2
sS'armor'
p3563
I2
sS'plum'
p3564
I4
sS'parisha'
p3565
I2
sS'karbonn'
p3566
I8
sS'mate'
p3567
I22
sS'messenger'
p3568
I7
sS'stud'
p3569
I7
sS'funky'
p3570
I2
sS'electronics'
p3571
I9
sS'cwe'
p3572
I2
sS'integrated'
p3573
I2
sS'kxtg'
p3574
I6
sS'andoized'
p3575
I2
sS'eco'
p3576
I7
sS'hyundai'
p3577
I7
sS'duffle'
p3578
I8
sS'bachini'
p3579
I8
sS'tiger'
p3580
I4
sS'kameez'
p3581
I3
sS'tempt'
p3582
I3
sS'samanya'
p3583
I2
sS'steering'
p3584
I6
sS'quo'
p3585
I2
sS'shui'
p3586
I2
sS'chilli'
p3587
I2
sS'timex'
p3588
I8
sS'anokhi'
p3589
I2
sS'dvd'
p3590
I7
sS'timer'
p3591
I2
sS'times'
p3592
I3
sS'chilly'
p3593
I2
sS'length'
p3594
I23
sS'stainless'
p3595
I50
sS'accusure'
p3596
I4
sS'austin'
p3597
I2
sS'scarf'
p3598
I6
sS'wildcraft'
p3599
I7
sS'ballerinas'
p3600
I4
sS'lon'
p3601
I2
sS'brandvilla'
p3602
I2
sS'bars'
p3603
I2
sS'soothing'
p3604
I4
sS'floral'
p3605
I70
sS'equinox'
p3606
I2
sS'quality'
p3607
I18
sS'sockets'
p3608
I4
sS'rudraksha'
p3609
I2
sS'bull'
p3610
I2
sS'management'
p3611
I5
sS'monkey'
p3612
I2
sS'festival'
p3613
I4
sS'data'
p3614
I13
sS'durable'
p3615
I6
sS'flag'
p3616
I2
sS'system'
p3617
I4
sS'aviator'
p3618
I32
sS'without'
p3619
I13
sS'ankle'
p3620
I37
sS'lacing'
p3621
I2
sS'tracksuits'
p3622
I6
sS'bosch'
p3623
I3
sS'beard'
p3624
I10
sS'back'
p3625
I132
sS'shell'
p3626
I4
sS'udv'
p3627
I3
sS'nitro'
p3628
I4
sS'shorts'
p3629
I49
sS'adaptor'
p3630
I3
sS'cutaway'
p3631
I3
sS'dailydeals'
p3632
I2
sS'dupatta'
p3633
I71
sS'ogm'
p3634
I2
sS'blazers'
p3635
I4
sS'racquets'
p3636
I4
sS'maze'
p3637
I2
sS'opti'
p3638
I2
sS'elite'
p3639
I6
sS'bulb'
p3640
I69
sS'neck'
p3641
I134
sS'steel'
p3642
I86
sS'lightening'
p3643
I2
sS'microsdxc'
p3644
I3
sS'ben'
p3645
I11
sS'liquid'
p3646
I2
sS'wet'
p3647
I7
sS'mbps'
p3648
I16
sS'shampoo'
p3649
I24
sS'professionnel'
p3650
I2
sS'bed'
p3651
I51
sS'bee'
p3652
I5
sS'female'
p3653
I2
sS'banarasi'
p3654
I12
sS'exclusive'
p3655
I9
sS'beetel'
p3656
I7
sS'surge'
p3657
I4
sS'triveni'
p3658
I2
sS'fengshui'
p3659
I4
sS'bodice'
p3660
I2
sS'patiala'
p3661
I5
sS'straps'
p3662
I4
sS'kiran'
p3663
I5
sS'clip'
p3664
I5
sS'yofashions'
p3665
I2
sS'deodorant'
p3666
I26
sS'ivory'
p3667
I6
sS'asics'
p3668
I2
sS'liner'
p3669
I7
sS'spicy'
p3670
I2
sS'ultrasonic'
p3671
I2
sS'have'
p3672
I2
sS'close'
p3673
I2
sS'faux'
p3674
I27
sS'taba'
p3675
I4
sS'koutons'
p3676
I2
sS'border'
p3677
I5
sS'complete'
p3678
I10
sS'rossmax'
p3679
I5
sS'screw'
p3680
I4
sS'jackly'
p3681
I3
sS'angle'
p3682
I7
sS'linen'
p3683
I13
sS'studying'
p3684
I2
sS'mic'
p3685
I12
sS'switch'
p3686
I12
sS'hangover'
p3687
I4
sS'arm'
p3688
I13
sS'mix'
p3689
I24
sS'parko'
p3690
I3
sS'field'
p3691
I3
sS'stylox'
p3692
I3
sS'singh'
p3693
I2
sS'lily'
p3694
I3
sS'soap'
p3695
I22
sS'blades'
p3696
I6
sS'areon'
p3697
I3
sS'micromax'
p3698
I35
sS'lagoon'
p3699
I2
sS'combat'
p3700
I2
sS'hitcolus'
p3701
I3
sS'flipside'
p3702
I6
sS'hankerchiefs'
p3703
I2
sS'princeware'
p3704
I2
sS'hdtss'
p3705
I4
sS'mimosa'
p3706
I3
sS'necklace'
p3707
I36
sS'hiphop'
p3708
I3
sS'pond'
p3709
I2
sS'logitech'
p3710
I13
sS'handbag'
p3711
I23
sS'slotted'
p3712
I3
sS'awe'
p3713
I2
sS'rege'
p3714
I3
sS'class'
p3715
I61
sS'afresh'
p3716
I7
sS'stereo'
p3717
I16
sS'gdivine'
p3718
I3
sS'quilted'
p3719
I10
sS'peplum'
p3720
I3
sS'keyring'
p3721
I3
sS'face'
p3722
I78
sS'pipe'
p3723
I6
sS'justkids'
p3724
I4
sS'elife'
p3725
I3
sS'pipa'
p3726
I2
sS'gesture'
p3727
I7
sS'stiched'
p3728
I3
sS'occasion'
p3729
I2
sS'indo'
p3730
I3
sS'painting'
p3731
I2
sS'dbh'
p3732
I2
sS'parker'
p3733
I7
sS'hoodies'
p3734
I7
sS'belkin'
p3735
I4
sS'skyways'
p3736
I15
sS'stove'
p3737
I2
sS'airlift'
p3738
I2
sS'aquafresh'
p3739
I4
sS'rotating'
p3740
I2
sS'naturals'
p3741
I6
sS'bikes'
p3742
I5
sS'seaweed'
p3743
I2
sS'dried'
p3744
I2
sS'supporter'
p3745
I2
sS'shoes'
p3746
I900
sS'kirpa'
p3747
I2
sS'based'
p3748
I6
sS'planter'
p3749
I2
sS'tire'
p3750
I2
sS'jay'
p3751
I2
sS'konnect'
p3752
I4
sS'jar'
p3753
I7
sS'adler'
p3754
I2
sS'jan'
p3755
I3
sS'loafers'
p3756
I55
sS'creme'
p3757
I7
sS'tape'
p3758
I12
sS'jai'
p3759
I2
sS'fuel'
p3760
I12
sS'riding'
p3761
I14
sS'zapatoz'
p3762
I2
sS'fcs'
p3763
I2
sS'spun'
p3764
I3
sS'whitening'
p3765
I19
sS'cherymoya'
p3766
I3
sS'move'
p3767
I3
sS'handle'
p3768
I16
sS'nutronic'
p3769
I2
sS'toned'
p3770
I15
sS'beat'
p3771
I2
sS'lucky'
p3772
I5
sS'bear'
p3773
I7
sS'unnati'
p3774
I5
sS'joint'
p3775
I2
sS'bean'
p3776
I28
sS'raga'
p3777
I2
sS'levis'
p3778
I3
sS'ananda'
p3779
I3
sS'richards'
p3780
I8
sS'striped'
p3781
I63
sS'shaping'
p3782
I2
sS'gray'
p3783
I13
sS'evolution'
p3784
I2
sS'aer'
p3785
I6
sS'toed'
p3786
I2
sS'belts'
p3787
I6
sS'rozdeal'
p3788
I3
sS'tally'
p3789
I2
sS'panther'
p3790
I3
sS'calling'
p3791
I4
sS'airmax'
p3792
I2
sS'topaz'
p3793
I2
sS'she'
p3794
I2
sS'gms'
p3795
I13
sS'tablets'
p3796
I6
sS'bluedio'
p3797
I3
sS'casted'
p3798
I2
sS'saucers'
p3799
I2
sS'frame'
p3800
I21
sS'fusion'
p3801
I10
sS'terrain'
p3802
I3
sS'module'
p3803
I4
sS'qty'
p3804
I9
sS'edition'
p3805
I69
sS'fushia'
p3806
I2
sS'computer'
p3807
I3
sS'powder'
p3808
I19
sS'dragon'
p3809
I3
sS'multicolour'
p3810
I11
sS'kingswood'
p3811
I4
sS'woodland'
p3812
I25
sS'uniscarf'
p3813
I2
sS'wears'
p3814
I2
sS'washable'
p3815
I2
sS'wire'
p3816
I5
sS'nails'
p3817
I4
sS'gliders'
p3818
I5
sS'closet'
p3819
I3
sS'softgels'
p3820
I4
sS'lux'
p3821
I32
sS'pattern'
p3822
I4
sS'beading'
p3823
I2
sS'maruti'
p3824
I14
sS'silicone'
p3825
I4
sS'state'
p3826
I2
sS'sweat'
p3827
I3
sS'joyo'
p3828
I7
sS'tyre'
p3829
I5
sS'piston'
p3830
I3
sS'refreshing'
p3831
I2
sS'pants'
p3832
I53
sS'bedsheets'
p3833
I5
sS'bound'
p3834
I14
sS'exam'
p3835
I8
sS'foldable'
p3836
I7
sS'joy'
p3837
I4
sS'railway'
p3838
I2
sS'joe'
p3839
I3
sS'key'
p3840
I27
sS'underwear'
p3841
I2
sS'sassafras'
p3842
I3
sS'boss'
p3843
I4
sS'swift'
p3844
I10
sS'jon'
p3845
I2
sS'monitor'
p3846
I23
sS'indore'
p3847
I2
sS'instant'
p3848
I4
sS'supersox'
p3849
I4
sS'healthvit'
p3850
I3
sS'mcafee'
p3851
I2
sS'hitz'
p3852
I9
sS'aqua'
p3853
I29
sS'etc'
p3854
I2
sS'harvard'
p3855
I2
sS'nebulizer'
p3856
I5
sS'zekl'
p3857
I2
sS'puff'
p3858
I2
sS'jersey'
p3859
I4
sS'hoody'
p3860
I2
sS'skating'
p3861
I2
sS'spandex'
p3862
I3
sS'wall'
p3863
I55
sS'denim'
p3864
I60
sS'hilfiger'
p3865
I4
sS'ajile'
p3866
I3
sS'gtm'
p3867
I2
sS'rpb'
p3868
I3
sS'ucb'
p3869
I2
sS'brinley'
p3870
I3
sS'clovia'
p3871
I5
sS'kings'
p3872
I9
sS'walnut'
p3873
I2
sS'rpm'
p3874
I2
sS'klamotten'
p3875
I13
sS'panty'
p3876
I5
sS'sari'
p3877
I117
sS'motorbike'
p3878
I2
sS'gillette'
p3879
I13
sS'microfibre'
p3880
I10
sS'polka'
p3881
I22
sS'zovi'
p3882
I9
sS'girgit'
p3883
I2
sS'applique'
p3884
I8
sS'hindi'
p3885
I3
sS'whisper'
p3886
I2
sS'curtain'
p3887
I29
sS'feather'
p3888
I3
sS'absorbent'
p3889
I2
sS'kolhapuri'
p3890
I2
sS'universal'
p3891
I26
sS'remedies'
p3892
I3
sS'bras'
p3893
I7
sS'melamine'
p3894
I2
sS'penny'
p3895
I3
sS'controlled'
p3896
I3
sS'league'
p3897
I22
sS'apsara'
p3898
I3
sS'lga'
p3899
I2
sS'otg'
p3900
I10
sS'hayabusa'
p3901
I4
sS'orange'
p3902
I124
sS'controller'
p3903
I8
sS'shuttlecock'
p3904
I4
sS'mannequin'
p3905
I3
sS'graphics'
p3906
I2
sS'folding'
p3907
I11
sS'shwetna'
p3908
I2
sS'spain'
p3909
I3
sS'banish'
p3910
I2
sS'carter'
p3911
I7
sS'homes'
p3912
I2
sS'multi'
p3913
I174
sS'smartphones'
p3914
I3
sS'laser'
p3915
I8
sS'bottels'
p3916
I2
sS'bamberg'
p3917
I3
sS'vanilla'
p3918
I12
sS'aloe'
p3919
I4
sS'fila'
p3920
I15
sS'value'
p3921
I4
sS'rectangular'
p3922
I15
sS'moyu'
p3923
I2
sS'rbk'
p3924
I2
sS'wild'
p3925
I5
sS'ultra'
p3926
I47
sS'ombre'
p3927
I2
sS'prokyde'
p3928
I2
sS'aaboli'
p3929
I4
sS'dent'
p3930
I2
sS'fidato'
p3931
I5
sS'motif'
p3932
I2
sS'omni'
p3933
I3
sS'freshvillaa'
p3934
I5
sS'lush'
p3935
I2
sS'tonic'
p3936
I6
sS'surface'
p3937
I2
sS'lust'
p3938
I2
sS'fitbit'
p3939
I2
sS'swinging'
p3940
I2
sS'acer'
p3941
I4
sS'ave'
p3942
I2
sS'convection'
p3943
I2
sS'laplant'
p3944
I3
sS'conical'
p3945
I2
sS'sequinned'
p3946
I3
sS'moochh'
p3947
I5
sS'zbwin'
p3948
I7
sS'grinder'
p3949
I7
sS'vintage'
p3950
I10
sS'balloon'
p3951
I4
sS'radiation'
p3952
I2
sS'roman'
p3953
I4
sS'unite'
p3954
I3
sS'campus'
p3955
I23
sS'layered'
p3956
I3
sS'speaker'
p3957
I31
sS'tumbler'
p3958
I6
sS'shuttle'
p3959
I5
sS'party'
p3960
I33
sS'android'
p3961
I17
sS'zyaden'
p3962
I5
sS'balm'
p3963
I9
sS'ball'
p3964
I29
sS'raymond'
p3965
I35
sS'versace'
p3966
I2
sS'drink'
p3967
I11
sS'skinny'
p3968
I27
sS'sauna'
p3969
I4
sS'ion'
p3970
I2
sS'dust'
p3971
I5
sS'microware'
p3972
I5
sS'nation'
p3973
I2
sS'cubix'
p3974
I2
sS'collar'
p3975
I12
sS'single'
p3976
I53
sS'tucker'
p3977
I3
sS'aannie'
p3978
I2
sS'off'
p3979
I30
sS'anarkali'
p3980
I36
sS'mtg'
p3981
I5
sS'knitco'
p3982
I4
sS'glamour'
p3983
I2
sS'colour'
p3984
I47
sS'well'
p3985
I2
sS'nutrilite'
p3986
I21
sS'showpiece'
p3987
I8
sS'drone'
p3988
I3
sS'pyjama'
p3989
I27
sS'sets'
p3990
I6
sS'knotty'
p3991
I6
sS'sagar'
p3992
I2
sS'audio'
p3993
I10
sS'infocus'
p3994
I6
sS'drawing'
p3995
I3
sS'latest'
p3996
I6
sS'rocker'
p3997
I2
sS'cruzer'
p3998
I13
sS'tossido'
p3999
I2
sS'cashew'
p4000
I4
sS'salwar'
p4001
I62
sS'sonata'
p4002
I8
sS'less'
p4003
I2
sS'storage'
p4004
I41
sS'terravulc'
p4005
I5
sS'purifier'
p4006
I2
sS'palm'
p4007
I2
sS'homestrap'
p4008
I2
sS'seats'
p4009
I2
sS'tough'
p4010
I2
sS'glue'
p4011
I2
sS'domestiq'
p4012
I3
sS'femme'
p4013
I10
sS'sku'
p4014
I6
sS'gmi'
p4015
I2
sS'rapid'
p4016
I4
sS'steelo'
p4017
I4
sS'wed'
p4018
I3
sS'weightless'
p4019
I2
sS'jainx'
p4020
I3
sS'smith'
p4021
I6
sS'studio'
p4022
I11
sS'microsd'
p4023
I10
sS'dongre'
p4024
I2
sS'spinner'
p4025
I2
sS'arrest'
p4026
I2
sS'nati'
p4027
I2
sS'other'
p4028
I3
sS'attractive'
p4029
I7
sS'citizen'
p4030
I3
sS'enfield'
p4031
I2
sS'jars'
p4032
I8
sS'balloons'
p4033
I2
sS'smart'
p4034
I54
sS'diwaah'
p4035
I2
sS'sonic'
p4036
I2
sS'washed'
p4037
I11
sS'caller'
p4038
I2
sS'masters'
p4039
I3
sS'wendell'
p4040
I2
sS'wool'
p4041
I14
sS'dryer'
p4042
I21
sS'five'
p4043
I2
sS'desi'
p4044
I8
sS'versiliana'
p4045
I2
sS'desk'
p4046
I3
sS'press'
p4047
I2
sS'kanjivaram'
p4048
I3
sS'height'
p4049
I5
sS'acrylic'
p4050
I19
sS'muscle'
p4051
I6
sS'loss'
p4052
I11
sS'flamingo'
p4053
I7
sS'breakbounce'
p4054
I7
sS'lost'
p4055
I2
sS'panahi'
p4056
I2
sS'miami'
p4057
I2
sS'sofa'
p4058
I6
sS'trimmer'
p4059
I19
sS'candy'
p4060
I7
sS'roti'
p4061
I9
sS'moringa'
p4062
I2
sS'lose'
p4063
I4
sS'charminar'
p4064
I2
sS'leaves'
p4065
I2
sS'soft'
p4066
I22
sS'inspiron'
p4067
I3
sS'replacement'
p4068
I3
sS'retractable'
p4069
I2
sS'keech'
p4070
I8
sS'cider'
p4071
I3
sS'prakhya'
p4072
I4
sS'authority'
p4073
I2
sS'hush'
p4074
I3
sS'daylight'
p4075
I2
sS'almonds'
p4076
I9
sS'warmer'
p4077
I2
sS'convex'
p4078
I2
sS'vsi'
p4079
I6
sS'peter'
p4080
I6
sS'drizzle'
p4081
I2
sS'jojo'
p4082
I4
sS'zesture'
p4083
I3
sS'ess'
p4084
I2
sS'kettle'
p4085
I17
sS'lean'
p4086
I2
sS'slide'
p4087
I3
sS'pendant'
p4088
I20
sS'detergent'
p4089
I3
sS'floss'
p4090
I2
sS'dezine'
p4091
I7
sS'passion'
p4092
I3
sS'chainz'
p4093
I2
sS'shopaholic'
p4094
I2
sS'earrings'
p4095
I29
sS'nawab'
p4096
I2
sS'digitek'
p4097
I2
sS'totta'
p4098
I3
sS'platinum'
p4099
I7
sS'vest'
p4100
I48
sS'hose'
p4101
I5
sS'coated'
p4102
I5
sS'medieval'
p4103
I2
sS'dci'
p4104
I9
sS'dce'
p4105
I2
sS'fatnile'
p4106
I2
sS'expansion'
p4107
I5
sS'expiry'
p4108
I8
sS'pressure'
p4109
I14
sS'mount'
p4110
I6
sS'kristie'
p4111
I3
sS'eurospa'
p4112
I2
sS'tempered'
p4113
I8
sS'panel'
p4114
I5
sS'krz'
p4115
I2
sS'iris'
p4116
I6
sS'about'
p4117
I2
sS'lifestyle'
p4118
I16
sS'socket'
p4119
I7
sS'world'
p4120
I7
sS'enlargement'
p4121
I3
sS'universe'
p4122
I2
sS'ribbed'
p4123
I3
sS'asha'
p4124
I2
sS'shipping'
p4125
I7
sS'yantra'
p4126
I2
sS'compatible'
p4127
I3
sS'seeds'
p4128
I2
sS'beige'
p4129
I105
sS'gainer'
p4130
I8
sS'puppies'
p4131
I3
sS'bindani'
p4132
I2
sS'software'
p4133
I3
sS'pasabahce'
p4134
I2
sS'owl'
p4135
I2
sS'biker'
p4136
I15
sS'celebrations'
p4137
I2
sS'letters'
p4138
I2
sS'healthaid'
p4139
I3
sS'tag'
p4140
I3
sS'socks'
p4141
I83
sS'headphone'
p4142
I25
sS'cocoa'
p4143
I2
sS'tenda'
p4144
I4
sS'guard'
p4145
I27
sS'trunks'
p4146
I6
sS'champ'
p4147
I8
sS'brush'
p4148
I14
sS'kotty'
p4149
I2
sS'freeze'
p4150
I3
sS'range'
p4151
I8
sS'bombay'
p4152
I18
sS'utility'
p4153
I15
sS'unboxed'
p4154
I5
sS'chyawanprash'
p4155
I12
sS'van'
p4156
I3
sS'elastic'
p4157
I4
sS'smokey'
p4158
I2
sS'kuber'
p4159
I3
sS'reduction'
p4160
I2
sS'zenfone'
p4161
I10
sS'imperial'
p4162
I3
sS'bees'
p4163
I2
sS'stsl'
p4164
I2
sS'inner'
p4165
I4
sS'brasso'
p4166
I18
sS'yrs'
p4167
I2
sS'suzuki'
p4168
I7
sS'function'
p4169
I3
sS'cricket'
p4170
I19
sS'buy'
p4171
I28
sS'north'
p4172
I2
sS'xperia'
p4173
I17
sS'bus'
p4174
I2
sS'brand'
p4175
I4
sS'astro'
p4176
I3
sS'ultima'
p4177
I4
sS'microsdhc'
p4178
I27
sS'nauti'
p4179
I2
sS'gain'
p4180
I2
sS'blacksoul'
p4181
I2
sS'remote'
p4182
I16
sS'apollo'
p4183
I2
sS'eau'
p4184
I3
sS'eat'
p4185
I3
sS'bblunt'
p4186
I2
sS'count'
p4187
I41
sS'made'
p4188
I8
sS'converter'
p4189
I3
sS'glory'
p4190
I5
sS'wish'
p4191
I4
sS'smooth'
p4192
I17
sS'flip'
p4193
I131
sS'zapcase'
p4194
I2
sS'books'
p4195
I3
sS'curler'
p4196
I5
sS'idol'
p4197
I9
sS'cello'
p4198
I15
sS'neckpiece'
p4199
I2
sS'problem'
p4200
I2
sS'piece'
p4201
I53
sS'minutes'
p4202
I3
sS'display'
p4203
I5
sS'mechanics'
p4204
I2
sS'burberry'
p4205
I3
sS'irish'
p4206
I3
sS'parichay'
p4207
I2
sS'pin'
p4208
I21
sS'inu'
p4209
I2
sS'retina'
p4210
I3
sS'kingston'
p4211
I4
sS'inr'
p4212
I5
sS'twist'
p4213
I7
sS'beats'
p4214
I2
sS'replica'
p4215
I3
sS'nutricare'
p4216
I10
sS'barcelona'
p4217
I2
sS'ink'
p4218
I10
sS'ind'
p4219
I13
sS'shooting'
p4220
I2
sS'programmer'
p4221
I2
sS'inc'
p4222
I3
sS'spell'
p4223
I3
sS'torch'
p4224
I6
sS'variety'
p4225
I2
sS'mysore'
p4226
I2
sS'assorted'
p4227
I85
sS'shoulders'
p4228
I2
sS'detail'
p4229
I2
sS'gmel'
p4230
I3
sS'oleva'
p4231
I2
sS'book'
p4232
I22
sS'granite'
p4233
I2
sS'chhabra'
p4234
I3
sS'homme'
p4235
I4
sS'dresses'
p4236
I38
sS'dresser'
p4237
I2
sS'morisons'
p4238
I2
sS'earbud'
p4239
I2
sS'quartz'
p4240
I6
sS'star'
p4241
I27
sS'kapoor'
p4242
I2
sS'seagate'
p4243
I7
sS'stag'
p4244
I3
sS'foil'
p4245
I2
sS'netgear'
p4246
I2
sS'tidel'
p4247
I2
sS'naughtiest'
p4248
I2
sS'biotechnology'
p4249
I3
sS'badass'
p4250
I6
sS'enterprises'
p4251
I2
sS'mats'
p4252
I11
sS'philips'
p4253
I65
sS'inlife'
p4254
I6
sS'samsung'
p4255
I82
sS'martin'
p4256
I2
sS'unflavoured'
p4257
I27
sS'eon'
p4258
I2
sS'citrate'
p4259
I3
sS'hiker'
p4260
I2
sS'craft'
p4261
I10
sS'lives'
p4262
I3
sS'bcr'
p4263
I4
s.