(dp0
S'limited'
p1
I0
sS'voleio'
p2
I2
sS'saver'
p3
I4
sS'dynamic'
p4
I5
sS'monte'
p5
I2167
sS'yellow'
p6
I7
sS'sleek'
p7
I8
sS'four'
p8
I9
sS'dixy'
p9
I712
sS'woods'
p10
I11
sS'sleep'
p11
I12
sS'asian'
p12
I13
sS'hanging'
p13
I14
sS'captain'
p14
I16
sS'trolley'
p15
I19
sS'swag'
p16
I20
sS'feeding'
p17
I21
sS'tancet'
p18
I22
sS'lenco'
p19
I23
sS'jaipur'
p20
I24
sS'paris'
p21
I25
sS'swan'
p22
I26
sS'glider'
p23
I1643
sS'lamere'
p24
I28
sS'opticare'
p25
I29
sS'trousers'
p26
I30
sS'stationery'
p27
I31
sS'lord'
p28
I32
sS'pride'
p29
I33
sS'regalia'
p30
I34
sS'worth'
p31
I35
sS'churidar'
p32
I36
sS'shaving'
p33
I37
sS'updated'
p34
I38
sS'delicious'
p35
I3522
sS'nikita'
p36
I2173
sS'blanket'
p37
I41
sS'rise'
p38
I882
sS'dell'
p39
I43
sS'kaspersky'
p40
I44
sS'helmet'
p41
I3450
sS'tourister'
p42
I46
sS'mania'
p43
I47
sS'leggings'
p44
I48
sS'jack'
p45
I49
sS'stylobby'
p46
I279
sS'hdts'
p47
I51
sS'signoraware'
p48
I52
sS'month'
p49
I2175
sS'pendant'
p50
I4086
sS'lumia'
p51
I54
sS'kemei'
p52
I55
sS'embroidred'
p53
I56
sS'school'
p54
I57
sS'basics'
p55
I58
sS'parrot'
p56
I60
sS'wooden'
p57
I61
sS'laurels'
p58
I62
sS'satchel'
p59
I63
sS'fogg'
p60
I64
sS'kxtg'
p61
I3572
sS'flag'
p62
I3614
sS'livingware'
p63
I66
sS'cms'
p64
I67
sS'triumph'
p65
I68
sS'clothes'
p66
I69
sS'forca'
p67
I70
sS'andoized'
p68
I3573
sS'paperback'
p69
I72
sS'force'
p70
I73
sS'gmel'
p71
I4228
sS'quilt'
p72
I75
sS'concise'
p73
I76
sS'phones'
p74
I77
sS'almond'
p75
I78
sS'lavender'
p76
I79
sS'pulse'
p77
I80
sS'horn'
p78
I81
sS'chef'
p79
I82
sS'elegant'
p80
I83
sS'oreal'
p81
I84
sS'fabulous'
p82
I85
sS'perfect'
p83
I3486
sS'sls'
p84
I86
sS'chhota'
p85
I87
sS'shining'
p86
I88
sS'blouse'
p87
I89
sS'neo'
p88
I90
sS'shatabdi'
p89
I91
sS'disk'
p90
I2184
sS'pace'
p91
I2880
sS'assorted'
p92
I4225
sS'cooking'
p93
I95
sS'liberty'
p94
I97
sS'scp'
p95
I2190
sS'lights'
p96
I99
sS'meizu'
p97
I100
sS'fossil'
p98
I101
sS'sheffield'
p99
I1455
sS'new'
p100
I103
sS'net'
p101
I104
sS'eves'
p102
I105
sS'disney'
p103
I106
sS'mee'
p104
I107
sS'specialist'
p105
I108
sS'hero'
p106
I109
sS'ruhaans'
p107
I110
sS'festive'
p108
I111
sS'mel'
p109
I112
sS'men'
p110
I113
sS'jasmine'
p111
I114
sS'pluto'
p112
I115
sS'jon'
p113
I3843
sS'teeforme'
p114
I116
sS'protection'
p115
I117
sS'china'
p116
I118
sS'mes'
p117
I119
sS'textured'
p118
I120
sS'cult'
p119
I121
sS'sandisk'
p120
I122
sS'hexadisk'
p121
I123
sS'activa'
p122
I124
sS'xft'
p123
I125
sS'buddy'
p124
I126
sS'studs'
p125
I127
sS'kids'
p126
I128
sS'masha'
p127
I129
sS'aks'
p128
I131
sS'hansx'
p129
I132
sS'smoky'
p130
I730
sS'quadcore'
p131
I134
sS'anchor'
p132
I135
sS'dri'
p133
I136
sS'credit'
p134
I137
sS'jogging'
p135
I138
sS'jegging'
p136
I139
sS'stoles'
p137
I2888
sS'smoke'
p138
I140
sS'military'
p139
I141
sS'pack'
p140
I2889
sS'omax'
p141
I144
sS'golden'
p142
I145
sS'prints'
p143
I146
sS'slicer'
p144
I147
sS'strap'
p145
I148
sS'bro'
p146
I149
sS'krown'
p147
I150
sS'jackets'
p148
I151
sS'samanya'
p149
I3581
sS'total'
p150
I152
sS'unit'
p151
I154
sS'narayan'
p152
I155
sS'mcqs'
p153
I156
sS'army'
p154
I157
sS'wajbee'
p155
I1465
sS'sweater'
p156
I160
sS'gloss'
p157
I161
sS'tail'
p158
I2196
sS'steering'
p159
I3582
sS'dnu'
p160
I164
sS'bike'
p161
I166
sS'music'
p162
I167
sS'passport'
p163
I168
sS'spike'
p164
I169
sS'strike'
p165
I170
sS'nitrotech'
p166
I171
sS'type'
p167
I172
sS'sticker'
p168
I736
sS'calf'
p169
I174
sS'cutecumber'
p170
I175
sS'breathe'
p171
I176
sS'kgs'
p172
I177
sS'playboy'
p173
I178
sS'spargz'
p174
I179
sS'chilli'
p175
I3585
sS'under'
p176
I182
sS'training'
p177
I1469
sS'accessories'
p178
I185
sS'glass'
p179
I187
sS'reversible'
p180
I188
sS'rimless'
p181
I189
sS'earclips'
p182
I190
sS'aux'
p183
I191
sS'timex'
p184
I3586
sS'moto'
p185
I2895
sS'pouch'
p186
I1096
sS'jmd'
p187
I196
sS'sunpet'
p188
I197
sS'shoot'
p189
I45
sS'staedtler'
p190
I1111
sS'flora'
p191
I200
sS'mytri'
p192
I201
sS'room'
p193
I1124
sS'player'
p194
I203
sS'blade'
p195
I1148
sS'shooz'
p196
I205
sS'erd'
p197
I206
sS'era'
p198
I208
sS'concepts'
p199
I210
sS'grovey'
p200
I211
sS'decorative'
p201
I1217
sS'radiance'
p202
I213
sS'swinging'
p203
I3938
sS'nozzle'
p204
I214
sS'dolphin'
p205
I215
sS'india'
p206
I216
sS'honey'
p207
I217
sS'titanium'
p208
I218
sS'rayon'
p209
I223
sS'story'
p210
I3090
sS'absolute'
p211
I225
sS'moserbaer'
p212
I226
sS'chanderi'
p213
I227
sS'pogo'
p214
I228
sS'dryer'
p215
I4040
sS'chilly'
p216
I3591
sS'travel'
p217
I230
sS'damage'
p218
I231
sS'wildhorn'
p219
I232
sS'machine'
p220
I233
sS'how'
p221
I234
sS'hot'
p222
I235
sS'gato'
p223
I236
sS'iliv'
p224
I237
sS'gate'
p225
I239
sS'chase'
p226
I2902
sS'beach'
p227
I241
sS'charging'
p228
I242
sS'pizza'
p229
I243
sS'gaming'
p230
I245
sS'fever'
p231
I246
sS'beauty'
p232
I247
sS'after'
p233
I249
sS'ball'
p234
I3962
sS'rigma'
p235
I251
sS'blacksmith'
p236
I1479
sS'modest'
p237
I253
sS'calidad'
p238
I254
sS'arshia'
p239
I255
sS'patankar'
p240
I256
sS'president'
p241
I257
sS'bsnl'
p242
I258
sS'parallel'
p243
I259
sS'luma'
p244
I260
sS'retail'
p245
I39
sS'vanca'
p246
I262
sS'move'
p247
I3765
sS'macroman'
p248
I263
sS'spout'
p249
I264
sS'nike'
p250
I265
sS'harley'
p251
I266
sS'owls'
p252
I267
sS'bedazzle'
p253
I268
sS'green'
p254
I269
sS'ultimate'
p255
I270
sS'enter'
p256
I271
sS'diary'
p257
I2213
sS'sandal'
p258
I2961
sS'order'
p259
I273
sS'wind'
p260
I274
sS'wine'
p261
I275
sS'zeb'
p262
I276
sS'blind'
p263
I1484
sS'toaster'
p264
I278
sS'wetex'
p265
I50
sS'office'
p266
I280
sS'over'
p267
I281
sS'bleach'
p268
I2214
sS'zen'
p269
I283
sS'eyewear'
p270
I2908
sS'floater'
p271
I2215
sS'bling'
p272
I1486
sS'london'
p273
I286
sS'plated'
p274
I287
sS'keyboard'
p275
I288
sS'saucers'
p276
I3797
sS'windshield'
p277
I289
sS'hook'
p278
I2462
sS'mayor'
p279
I290
sS'vento'
p280
I292
sS'fit'
p281
I293
sS'personal'
p282
I294
sS'backpack'
p283
I295
sS'masterchef'
p284
I296
sS'denver'
p285
I297
sS'crew'
p286
I298
sS'lahenga'
p287
I299
sS'magnetic'
p288
I300
sS'encounter'
p289
I301
sS'hidden'
p290
I303
sS'sqaure'
p291
I304
sS'gents'
p292
I305
sS'toyzstation'
p293
I306
sS'paduki'
p294
I307
sS'belly'
p295
I308
sS'coffee'
p296
I309
sS'everwel'
p297
I310
sS'thrones'
p298
I311
sS'enrich'
p299
I312
sS'slate'
p300
I313
sS'safe'
p301
I314
sS'renka'
p302
I315
sS'band'
p303
I316
sS'oricum'
p304
I317
sS'therapy'
p305
I318
sS'effects'
p306
I319
sS'manicure'
p307
I320
sS'fappy'
p308
I2358
sS'one'
p309
I1493
sS'silver'
p310
I322
sS'pjs'
p311
I323
sS'stereo'
p312
I3715
sS'electro'
p313
I324
sS'rocky'
p314
I325
sS'oxygen'
p315
I326
sS'vinod'
p316
I327
sS'rockville'
p317
I328
sS'off'
p318
I3977
sS'neckpiecerhinestone'
p319
I332
sS'dyeing'
p320
I333
sS'divinext'
p321
I334
sS'filling'
p322
I335
sS'arrow'
p323
I336
sS'fitness'
p324
I337
sS'aroma'
p325
I2955
sS'acoustic'
p326
I338
sS'crocs'
p327
I339
sS'bone'
p328
I340
sS'voyager'
p329
I341
sS'mdi'
p330
I342
sS'telescope'
p331
I343
sS'chiffon'
p332
I344
sS'diya'
p333
I345
sS'whif'
p334
I346
sS'series'
p335
I347
sS'coldpressed'
p336
I348
sS'mdf'
p337
I349
sS'tiffin'
p338
I350
sS'cmb'
p339
I351
sS'carry'
p340
I1496
sS'milan'
p341
I353
sS'strips'
p342
I2918
sS'spinner'
p343
I4023
sS'mdr'
p344
I354
sS'logo'
p345
I355
sS'extract'
p346
I356
sS'tresemme'
p347
I1498
sS'velvet'
p348
I360
sS'network'
p349
I361
sS'driving'
p350
I362
sS'gradient'
p351
I363
sS'god'
p352
I364
sS'tales'
p353
I365
sS'diesel'
p354
I366
sS'forty'
p355
I367
sS'dsp'
p356
I368
sS'urbane'
p357
I369
sS'sparkle'
p358
I370
sS'dsl'
p359
I371
sS'daniel'
p360
I372
sS'amethyst'
p361
I373
sS'nite'
p362
I374
sS'marigold'
p363
I376
sS'fuson'
p364
I377
sS'frenchie'
p365
I378
sS'foundation'
p366
I380
sS'aluma'
p367
I381
sS'leopard'
p368
I2923
sS'choli'
p369
I3053
sS'sheer'
p370
I1504
sS'free'
p371
I385
sS'standard'
p372
I386
sS'shubham'
p373
I387
sS'management'
p374
I3609
sS'starter'
p375
I3224
sS'elle'
p376
I388
sS'hoodie'
p377
I389
sS'sheet'
p378
I1506
sS'infix'
p379
I391
sS'knit'
p380
I392
sS'venus'
p381
I393
sS'monkey'
p382
I3610
sS'xuv'
p383
I395
sS'shelves'
p384
I396
sS'comforthome'
p385
I397
sS'diabetic'
p386
I398
sS'kashmir'
p387
I399
sS'kohinoor'
p388
I400
sS'ath'
p389
I401
sS'locomotive'
p390
I2233
sS'silicon'
p391
I403
sS'isi'
p392
I404
sS'signature'
p393
I405
sS'condom'
p394
I2725
sS'loud'
p395
I406
sS'atx'
p396
I407
sS'cleaning'
p397
I1723
sS'size'
p398
I1501
sS'naughty'
p399
I409
sS'shopper'
p400
I410
sS'iomcr'
p401
I411
sS'grade'
p402
I412
sS'rani'
p403
I414
sS'veggie'
p404
I415
sS'walkers'
p405
I416
sS'callmate'
p406
I417
sS'kalnirnay'
p407
I418
sS'wash'
p408
I419
sS'fedrigo'
p409
I420
sS'nhp'
p410
I421
sS'chevron'
p411
I422
sS'robust'
p412
I3088
sS'comforter'
p413
I424
sS'pulsar'
p414
I425
sS'thick'
p415
I426
sS'electronic'
p416
I428
sS'cooktop'
p417
I776
sS'hood'
p418
I430
sS'equinox'
p419
I3604
sS'basketball'
p420
I431
sS'aire'
p421
I432
sS'garcinia'
p422
I433
sS'girls'
p423
I434
sS'twisted'
p424
I435
sS'fiction'
p425
I436
sS'kinder'
p426
I437
sS'master'
p427
I438
sS'tom'
p428
I439
sS'tamron'
p429
I440
sS'inferno'
p430
I441
sS'john'
p431
I442
sS'genesis'
p432
I443
sS'glucose'
p433
I444
sS'curtains'
p434
I445
sS'ceiling'
p435
I446
sS'hangout'
p436
I447
sS'stickerless'
p437
I448
sS'geneva'
p438
I449
sS'cushions'
p439
I450
sS'homezaara'
p440
I451
sS'gym'
p441
I452
sS'brushes'
p442
I453
sS'compressor'
p443
I454
sS'partywear'
p444
I455
sS'western'
p445
I456
sS'cereal'
p446
I457
sS'printland'
p447
I458
sS'walnut'
p448
I3871
sS'nail'
p449
I459
sS'skimmer'
p450
I460
sS'rdstr'
p451
I461
sS'treo'
p452
I462
sS'shivalik'
p453
I463
sS'fairytale'
p454
I465
sS'tree'
p455
I466
sS'rolex'
p456
I467
sS'idly'
p457
I468
sS'mattel'
p458
I469
sS'shower'
p459
I470
sS'endura'
p460
I471
sS'street'
p461
I472
sS'silly'
p462
I473
sS'iron'
p463
I474
sS'creme'
p464
I3755
sS'seater'
p465
I475
sS'silky'
p466
I2494
sS'tipping'
p467
I476
sS'mini'
p468
I477
sS'lbs'
p469
I478
sS'vector'
p470
I479
sS'handkerchief'
p471
I480
sS'morpheme'
p472
I1520
sS'runner'
p473
I482
sS'modern'
p474
I483
sS'mind'
p475
I484
sS'ginger'
p476
I485
sS'raw'
p477
I486
sS'graphics'
p478
I3904
sS'seed'
p479
I487
sS'salvar'
p480
I488
sS'subjects'
p481
I2967
sS'mint'
p482
I489
sS'saffire'
p483
I490
sS'ray'
p484
I2914
sS'affairs'
p485
I492
sS'genuine'
p486
I493
sS'smartmate'
p487
I494
sS'metallic'
p488
I495
sS'adaptor'
p489
I3628
sS'fitting'
p490
I497
sS'hydration'
p491
I98
sS'luxury'
p492
I499
sS'doors'
p493
I500
sS'cutaway'
p494
I3629
sS'panties'
p495
I503
sS'snowflake'
p496
I504
sS'ypm'
p497
I505
sS'even'
p498
I506
sS'insulated'
p499
I507
sS'classy'
p500
I3469
sS'sennheiser'
p501
I2253
sS'victoria'
p502
I509
sS'swiss'
p503
I2945
sS'regular'
p504
I510
sS'mouth'
p505
I511
sS'letter'
p506
I512
sS'quantitative'
p507
I513
sS'phase'
p508
I514
sS'corded'
p509
I515
sS'marie'
p510
I516
sS'glow'
p511
I517
sS'webcam'
p512
I518
sS'ind'
p513
I4217
sS'flops'
p514
I519
sS'don'
p515
I520
sS'swami'
p516
I521
sS'punjabi'
p517
I522
sS'flop'
p518
I523
sS'flow'
p519
I524
sS'dog'
p520
I525
sS'spencer'
p521
I526
sS'bracket'
p522
I527
sS'tech'
p523
I528
sS'enterprise'
p524
I529
sS'dos'
p525
I530
sS'pretty'
p526
I3374
sS'ruhaan'
p527
I531
sS'fitted'
p528
I532
sS'marvel'
p529
I533
sS'polypropylene'
p530
I534
sS'skumars'
p531
I535
sS'inspire'
p532
I536
sS'queen'
p533
I537
sS'brogues'
p534
I538
sS'zebronics'
p535
I539
sS'padded'
p536
I540
sS'lee'
p537
I3304
sS'liza'
p538
I541
sS'radio'
p539
I542
sS'musicals'
p540
I543
sS'subtle'
p541
I545
sS'stybuzz'
p542
I546
sS'amiraj'
p543
I547
sS'kamachi'
p544
I548
sS'vishal'
p545
I1533
sS'hrx'
p546
I550
sS'sheesham'
p547
I552
sS'uberlyfe'
p548
I553
sS'acne'
p549
I554
sS'ganesham'
p550
I555
sS'mens'
p551
I556
sS'rico'
p552
I557
sS'sonilex'
p553
I558
sS'rich'
p554
I559
sS'vaadi'
p555
I560
sS'rice'
p556
I561
sS'nocolortrans'
p557
I562
sS'rectangle'
p558
I563
sS'amul'
p559
I564
sS'plate'
p560
I566
sS'riwaz'
p561
I567
sS'sunglasses'
p562
I568
sS'sobre'
p563
I569
sS'klein'
p564
I570
sS'goonj'
p565
I571
sS'honda'
p566
I572
sS'stop'
p567
I573
sS'fitcolus'
p568
I574
sS'pocket'
p569
I575
sS'joven'
p570
I577
sS'cushion'
p571
I578
sS'wedding'
p572
I579
sS'ben'
p573
I3643
sS'callone'
p574
I581
sS'stoa'
p575
I1226
sS'vermello'
p576
I583
sS'lehanga'
p577
I584
sS'beads'
p578
I890
sS'pearson'
p579
I586
sS'jaguar'
p580
I587
sS'perros'
p581
I588
sS'leatherite'
p582
I589
sS'scrubber'
p583
I590
sS'books'
p584
I4193
sS'patch'
p585
I591
sS'bag'
p586
I592
sS'goggles'
p587
I593
sS'terabyte'
p588
I594
sS'piggy'
p589
I595
sS'ban'
p590
I596
sS'beevee'
p591
I597
sS'preactivated'
p592
I598
sS'steam'
p593
I599
sS'ears'
p594
I600
sS'bleu'
p595
I601
sS'rockstar'
p596
I603
sS'motherboard'
p597
I604
sS'highlander'
p598
I605
sS'pads'
p599
I606
sS'maharaja'
p600
I607
sS'allura'
p601
I609
sS'bichona'
p602
I610
sS'bee'
p603
I3650
sS'optimum'
p604
I612
sS'best'
p605
I613
sS'subject'
p606
I614
sS'voyage'
p607
I615
sS'capacity'
p608
I616
sS'dungaree'
p609
I618
sS'rings'
p610
I619
sS'artificial'
p611
I620
sS'manola'
p612
I621
sS'mud'
p613
I622
sS'mug'
p614
I623
sS'smps'
p615
I1541
sS'finger'
p616
I625
sS'embroidery'
p617
I626
sS'glutamine'
p618
I627
sS'shaver'
p619
I628
sS'approach'
p620
I629
sS'lazy'
p621
I630
sS'lakme'
p622
I631
sS'omg'
p623
I632
sS'schwarzkopf'
p624
I633
sS'nature'
p625
I634
sS'wrapping'
p626
I635
sS'aquarius'
p627
I636
sS'vitamin'
p628
I637
sS'toilette'
p629
I638
sS'lotion'
p630
I639
sS'toothbrush'
p631
I640
sS'wta'
p632
I641
sS'portronics'
p633
I643
sS'wear'
p634
I644
sS'motoway'
p635
I645
sS'carbon'
p636
I646
sS'times'
p637
I3590
sS'roller'
p638
I647
sS'kitchen'
p639
I648
sS'coq'
p640
I649
sS'protect'
p641
I650
sS'planner'
p642
I651
sS'cuffs'
p643
I2963
sS'cow'
p644
I654
sS'moisturiser'
p645
I655
sS'resistant'
p646
I656
sS'adapter'
p647
I657
sS'zapatoz'
p648
I3760
sS'heating'
p649
I658
sS'tamanna'
p650
I660
sS'cod'
p651
I661
sS'faces'
p652
I662
sS'coi'
p653
I663
sS'uni'
p654
I664
sS'col'
p655
I665
sS'uno'
p656
I666
sS'and'
p657
I1550
sS'tone'
p658
I668
sS'refils'
p659
I669
sS'tong'
p660
I670
sS'aracruz'
p661
I671
sS'sai'
p662
I1551
sS'height'
p663
I4047
sS'storite'
p664
I675
sS'matte'
p665
I676
sS'lanterns'
p666
I677
sS'sml'
p667
I2197
sS'towels'
p668
I678
sS'refill'
p669
I679
sS'rudraksha'
p670
I3607
sS'ether'
p671
I680
sS'inflator'
p672
I681
sS'bingo'
p673
I682
sS'metrogue'
p674
I683
sS'bathroom'
p675
I684
sS'jojo'
p676
I4080
sS'prc'
p677
I1508
sS'chrome'
p678
I686
sS'three'
p679
I688
sS'tiny'
p680
I689
sS'blower'
p681
I690
sS'beer'
p682
I691
sS'homefab'
p683
I692
sS'refurbished'
p684
I693
sS'tizen'
p685
I694
sS'basic'
p686
I695
sS'basil'
p687
I696
sS'flexible'
p688
I697
sS'shopolozy'
p689
I698
sS'toning'
p690
I699
sS'dots'
p691
I700
sS'dry'
p692
I701
sS'life'
p693
I702
sS'nayo'
p694
I703
sS'mushroom'
p695
I704
sS'onida'
p696
I705
sS'mcb'
p697
I706
sS'smartwatch'
p698
I707
sS'lafantar'
p699
I1557
sS'pista'
p700
I709
sS'lift'
p701
I710
sS'enivid'
p702
I2287
sS'repeller'
p703
I711
sS'kamasutra'
p704
I10
sS'spin'
p705
I714
sS'stylar'
p706
I27
sS'bounce'
p707
I3015
sS'xxl'
p708
I716
sS'tank'
p709
I717
sS'gyan'
p710
I718
sS'servin'
p711
I719
sS'slr'
p712
I722
sS'air'
p713
I723
sS'biker'
p714
I4134
sS'aio'
p715
I724
sS'dashboard'
p716
I725
sS'jaiib'
p717
I726
sS'aid'
p718
I727
sS'voice'
p719
I729
sS'kidz'
p720
I133
sS'skirts'
p721
I731
sS'spawn'
p722
I732
sS'doormat'
p723
I733
sS'cylinder'
p724
I734
sS'sebamed'
p725
I212
sS'toolkit'
p726
I737
sS'curler'
p727
I4194
sS'bodycon'
p728
I738
sS'skipping'
p729
I739
sS'eve'
p730
I3255
sS'tissue'
p731
I740
sS'prestitia'
p732
I741
sS'bedsheets'
p733
I3831
sS'conditioner'
p734
I742
sS'mouse'
p735
I743
sS'superbatman'
p736
I744
sS'oriflame'
p737
I2978
sS'flyjohn'
p738
I745
sS'redmi'
p739
I746
sS'bottles'
p740
I748
sS'chakravarthi'
p741
I749
sS'bacca'
p742
I750
sS'belle'
p743
I751
sS'make'
p744
I752
sS'woollen'
p745
I753
sS'bella'
p746
I754
sS'treder'
p747
I755
sS'prettysecrets'
p748
I756
sS'split'
p749
I757
sS'vegetable'
p750
I758
sS'lithium'
p751
I759
sS'bunny'
p752
I760
sS'bells'
p753
I761
sS'wheel'
p754
I762
sS'plating'
p755
I764
sS'hosiery'
p756
I765
sS'xbap'
p757
I766
sS'presure'
p758
I767
sS'tops'
p759
I768
sS'rain'
p760
I769
sS'sakhi'
p761
I1233
sS'delight'
p762
I771
sS'jiya'
p763
I772
sS'nubuk'
p764
I773
sS'handicraft'
p765
I1573
sS'tuna'
p766
I429
sS'kid'
p767
I777
sS'butter'
p768
I778
sS'jeggings'
p769
I779
sS'atorse'
p770
I780
sS'dent'
p771
I3928
sS'neptune'
p772
I783
sS'eps'
p773
I784
sS'ocean'
p774
I785
sS'dazzgear'
p775
I786
sS'crazzy'
p776
I498
sS'greatest'
p777
I788
sS'mother'
p778
I789
sS'borse'
p779
I790
sS'raindrops'
p780
I791
sS'the'
p781
I792
sS'ajanta'
p782
I793
sS'micromax'
p783
I3696
sS'musical'
p784
I794
sS'manforce'
p785
I2985
sS'cufflink'
p786
I2595
sS'indigo'
p787
I796
sS'just'
p788
I797
sS'photo'
p789
I798
sS'laptop'
p790
I799
sS'kall'
p791
I800
sS'proriders'
p792
I801
sS'kotty'
p793
I4147
sS'arpan'
p794
I803
sS'hangover'
p795
I3685
sS'human'
p796
I805
sS'yes'
p797
I807
sS'trufit'
p798
I808
sS'lycans'
p799
I809
sS'previous'
p800
I810
sS'goodlay'
p801
I811
sS'unique'
p802
I812
sS'ayushi'
p803
I813
sS'yamaha'
p804
I815
sS'scorpio'
p805
I816
sS'agile'
p806
I817
sS'royal'
p807
I819
sS'elg'
p808
I820
sS'passive'
p809
I822
sS'collections'
p810
I823
sS'board'
p811
I824
sS'easy'
p812
I825
sS'rts'
p813
I3269
sS'vanity'
p814
I827
sS'hat'
p815
I828
sS'desire'
p816
I829
sS'turquoise'
p817
I830
sS'casting'
p818
I831
sS'vorson'
p819
I833
sS'online'
p820
I1584
sS'motomo'
p821
I835
sS'besiva'
p822
I836
sS'caps'
p823
I837
sS'ritika'
p824
I838
sS'alphard'
p825
I781
sS'lcd'
p826
I840
sS'boxer'
p827
I841
sS'dreamy'
p828
I842
sS'spanner'
p829
I843
sS'cape'
p830
I844
sS'shadow'
p831
I845
sS'designers'
p832
I846
sS'singh'
p833
I3691
sS'advanced'
p834
I551
sS'reusable'
p835
I849
sS'scarpa'
p836
I850
sS'kazo'
p837
I851
sS'vimal'
p838
I852
sS'manual'
p839
I853
sS'rsmw'
p840
I854
sS'xbox'
p841
I856
sS'bheem'
p842
I857
sS'pasabahce'
p843
I4132
sS'steps'
p844
I859
sS'mosquito'
p845
I860
sS'night'
p846
I861
sS'eyelet'
p847
I862
sS'insta'
p848
I863
sS'security'
p849
I864
sS'antique'
p850
I865
sS'butterfly'
p851
I1590
sS'eccellente'
p852
I867
sS'right'
p853
I868
sS'old'
p854
I869
sS'creek'
p855
I870
sS'deal'
p856
I871
sS'people'
p857
I872
sS'wonderchef'
p858
I3412
sS'nevy'
p859
I873
sS'dead'
p860
I874
sS'zoom'
p861
I875
sS'sponge'
p862
I876
sS'born'
p863
I877
sS'couture'
p864
I878
sS'printer'
p865
I1593
sS'jupiter'
p866
I880
sS'topware'
p867
I881
sS'escape'
p868
I1018
sS'compatible'
p869
I4125
sS'maspar'
p870
I884
sS'tutorial'
p871
I885
sS'orchid'
p872
I886
sS'community'
p873
I2829
sS'orpat'
p874
I888
sS'cooper'
p875
I889
sS'radha'
p876
I1056
sS'for'
p877
I891
sS'bottom'
p878
I892
sS'purple'
p879
I893
sS'quarks'
p880
I895
sS'fox'
p881
I896
sS'ice'
p882
I1082
sS'creative'
p883
I898
sS'herbalife'
p884
I1094
sS'icy'
p885
I900
sS'fog'
p886
I901
sS'liteforce'
p887
I902
sS'bra'
p888
I903
sS'faballey'
p889
I904
sS'melange'
p890
I905
sS'hunk'
p891
I906
sS'mooch'
p892
I907
sS'trunk'
p893
I2280
sS'flaps'
p894
I908
sS'cord'
p895
I1266
sS'core'
p896
I910
sS'columbus'
p897
I1154
sS'sewing'
p898
I912
sS'peel'
p899
I913
sS'marketing'
p900
I914
sS'burn'
p901
I915
sS'colorplus'
p902
I916
sS'lamps'
p903
I1209
sS'tulsattva'
p904
I918
sS'keeper'
p905
I919
sS'khan'
p906
I2313
sS'peep'
p907
I921
sS'super'
p908
I922
sS'shonaya'
p909
I923
sS'plug'
p910
I924
sS'mimosa'
p911
I3704
sS'oren'
p912
I926
sS'priyanka'
p913
I928
sS'lapis'
p914
I1279
sS'months'
p915
I930
sS'sequin'
p916
I3008
sS'dinner'
p917
I932
sS'plus'
p918
I1309
sS'definition'
p919
I2528
sS'usmgm'
p920
I935
sS'parivar'
p921
I936
sS'duke'
p922
I939
sS'nabaiji'
p923
I941
sS'bata'
p924
I942
sS'mochi'
p925
I943
sS'tinkerbell'
p926
I944
sS'wrab'
p927
I946
sS'honeymoon'
p928
I947
sS'mba'
p929
I949
sS'chutney'
p930
I582
sS'bitterlime'
p931
I951
sS'carafe'
p932
I952
sS'google'
p933
I3010
sS'wrap'
p934
I953
sS'multifunctional'
p935
I955
sS'novo'
p936
I957
sS'slipons'
p937
I950
sS'fabric'
p938
I960
sS'pearl'
p939
I2318
sS'support'
p940
I962
sS'flying'
p941
I1254
sS'fuchsia'
p942
I964
sS'gift'
p943
I965
sS'nova'
p944
I966
sS'class'
p945
I3713
sS'virgin'
p946
I967
sS'way'
p947
I968
sS'wax'
p948
I969
sS'overhead'
p949
I970
sS'frocks'
p950
I2706
sS'war'
p951
I971
sS'viha'
p952
I972
sS'happy'
p953
I973
sS'fork'
p954
I974
sS'ayaany'
p955
I975
sS'head'
p956
I976
sS'tints'
p957
I977
sS'waistcoat'
p958
I978
sS'beyblade'
p959
I979
sS'offer'
p960
I980
sS'batman'
p961
I981
sS'heal'
p962
I982
sS'converse'
p963
I983
sS'kingston'
p964
I4209
sS'remover'
p965
I984
sS'oil'
p966
I2487
sS'ford'
p967
I985
sS'wireless'
p968
I986
sS'sagas'
p969
I987
sS'sagar'
p970
I3990
sS'diaper'
p971
I989
sS'solar'
p972
I990
sS'true'
p973
I992
sS'nayasa'
p974
I993
sS'lavie'
p975
I2824
sS'flavour'
p976
I994
sS'mtr'
p977
I996
sS'mts'
p978
I997
sS'inside'
p979
I998
sS'myopia'
p980
I1701
sS'mtv'
p981
I1000
sS'healthvit'
p982
I3848
sS'vivo'
p983
I1711
sS'paprika'
p984
I1002
sS'crystal'
p985
I1003
sS'idol'
p986
I4195
sS'pest'
p987
I1004
sS'sapphire'
p988
I1005
sS'mtc'
p989
I1007
sS'zodiac'
p990
I1008
sS'pendrive'
p991
I1009
sS'rialto'
p992
I1010
sS'trim'
p993
I1011
sS'musk'
p994
I1012
sS'trio'
p995
I1013
sS'classic'
p996
I1014
sS'bharti'
p997
I1015
sS'jabra'
p998
I1016
sS'abstract'
p999
I1017
sS'bathrobe'
p1000
I1020
sS'textbook'
p1001
I1021
sS'drive'
p1002
I1616
sS'khi'
p1003
I1023
sS'sukun'
p1004
I2329
sS'bedsheet'
p1005
I1025
sS'shiner'
p1006
I1853
sS'shiv'
p1007
I1027
sS'check'
p1008
I1028
sS'physical'
p1009
I1029
sS'skullcandy'
p1010
I1030
sS'dotted'
p1011
I1031
sS'floor'
p1012
I1032
sS'handmade'
p1013
I1034
sS'fresvillaa'
p1014
I1035
sS'tin'
p1015
I1036
sS'republic'
p1016
I1037
sS'digital'
p1017
I1038
sS'test'
p1018
I1039
sS'holly'
p1019
I1040
sS'whey'
p1020
I1041
sS'roll'
p1021
I1042
sS'rangoli'
p1022
I1043
sS'eternity'
p1023
I1044
sS'sink'
p1024
I3314
sS'electrolux'
p1025
I1045
sS'sling'
p1026
I1046
sS'juicer'
p1027
I1047
sS'eiffel'
p1028
I1048
sS'blissta'
p1029
I1049
sS'cambric'
p1030
I1050
sS'essart'
p1031
I1051
sS'ico'
p1032
I1052
sS'omega'
p1033
I1054
sS'camisoles'
p1034
I1055
sS'tenda'
p1035
I4142
sS'jones'
p1036
I1057
sS'floaters'
p1037
I1058
sS'bullet'
p1038
I1059
sS'chrono'
p1039
I1060
sS'nawab'
p1040
I4094
sS'twinkle'
p1041
I3030
sS'lilliput'
p1042
I1063
sS'daily'
p1043
I2111
sS'collared'
p1044
I1065
sS'warm'
p1045
I1066
sS'bonacure'
p1046
I1067
sS'time'
p1047
I1068
sS'push'
p1048
I1069
sS'serious'
p1049
I1070
sS'dust'
p1050
I3969
sS'adult'
p1051
I1072
sS'roi'
p1052
I153
sS'concept'
p1053
I1074
sS'rom'
p1054
I1075
sS'chain'
p1055
I1076
sS'karishma'
p1056
I1077
sS'global'
p1057
I1078
sS'activated'
p1058
I1079
sS'cobra'
p1059
I1630
sS'skate'
p1060
I1081
sS'microwave'
p1061
I897
sS'skin'
p1062
I1083
sS'chair'
p1063
I1084
sS'bomber'
p1064
I1085
sS'milk'
p1065
I1086
sS'nuteez'
p1066
I1089
sS'venice'
p1067
I1090
sS'grape'
p1068
I1091
sS'essentials'
p1069
I1092
sS'zone'
p1070
I1093
sS'everything'
p1071
I1435
sS'flask'
p1072
I1095
sS'ahmedabad'
p1073
I195
sS'flash'
p1074
I1097
sS'click'
p1075
I3284
sS'veg'
p1076
I1098
sS'charge'
p1077
I1099
sS'vee'
p1078
I1100
sS'wed'
p1079
I4016
sS'amla'
p1080
I1102
sS'rham'
p1081
I1103
sS'anekaant'
p1082
I1104
sS'macho'
p1083
I1105
sS'quilts'
p1084
I1106
sS'bootwale'
p1085
I3040
sS'handkerchiefs'
p1086
I198
sS'protective'
p1087
I1109
sS'string'
p1088
I1110
sS'kumar'
p1089
I199
sS'airlift'
p1090
I3736
sS'krazy'
p1091
I1113
sS'trident'
p1092
I1114
sS'shivpriya'
p1093
I1115
sS'choice'
p1094
I1116
sS'wallets'
p1095
I1117
sS'redish'
p1096
I1118
sS'ncase'
p1097
I1119
sS'cyan'
p1098
I1120
sS'blast'
p1099
I1121
sS'baggit'
p1100
I1122
sS'eluga'
p1101
I1123
sS'cool'
p1102
I2445
sS'skyblue'
p1103
I1125
sS'rotating'
p1104
I3738
sS'kurtas'
p1105
I1127
sS'zaveri'
p1106
I1128
sS'level'
p1107
I1130
sS'skycandle'
p1108
I1131
sS'skore'
p1109
I1133
sS'gun'
p1110
I1134
sS'charcoal'
p1111
I3372
sS'magnet'
p1112
I464
sS'solved'
p1113
I1136
sS'yala'
p1114
I1137
sS'excellence'
p1115
I1138
sS'teal'
p1116
I1139
sS'team'
p1117
I1140
sS'quick'
p1118
I1141
sS'bikerz'
p1119
I1142
sS'woven'
p1120
I1143
sS'round'
p1121
I1144
sS'cortina'
p1122
I1642
sS'shave'
p1123
I1146
sS'upper'
p1124
I1147
sS'work'
p1125
I204
sS'htc'
p1126
I1149
sS'thin'
p1127
I3393
sS'trend'
p1128
I1151
sS'tvsh'
p1129
I1152
sS'pore'
p1130
I2583
sS'shaker'
p1131
I911
sS'blue'
p1132
I1155
sS'atasi'
p1133
I2570
sS'khaki'
p1134
I1156
sS'chopping'
p1135
I1157
sS'shirts'
p1136
I1158
sS'port'
p1137
I1159
sS'traderss'
p1138
I1160
sS'headset'
p1139
I1161
sS'constitution'
p1140
I1162
sS'barbie'
p1141
I1163
sS'filler'
p1142
I1164
sS'menthol'
p1143
I1165
sS'manetti'
p1144
I1166
sS'current'
p1145
I1168
sS'switch'
p1146
I3684
sS'autosun'
p1147
I1169
sS'adda'
p1148
I2731
sS'cookieman'
p1149
I1173
sS'camlin'
p1150
I1174
sS'international'
p1151
I1175
sS'sweaters'
p1152
I1177
sS'kama'
p1153
I1179
sS'camisole'
p1154
I1180
sS'shuttle'
p1155
I3957
sS'makeup'
p1156
I1182
sS'shankar'
p1157
I1183
sS'french'
p1158
I1184
sS'strontium'
p1159
I1185
sS'elbow'
p1160
I1186
sS'witch'
p1161
I1187
sS'muscletech'
p1162
I1188
sS'apache'
p1163
I1189
sS'mugs'
p1164
I1129
sS'moisturizer'
p1165
I1191
sS'xtreme'
p1166
I1192
sS'change'
p1167
I1194
sS'planter'
p1168
I3747
sS'box'
p1169
I1196
sS'boy'
p1170
I1197
sS'sprouter'
p1171
I1198
sS'male'
p1172
I2356
sS'condoms'
p1173
I1200
sS'shift'
p1174
I1201
sS'garnier'
p1175
I1202
sS'shoulders'
p1176
I4226
sS'bow'
p1177
I1205
sS'elastane'
p1178
I1206
sS'chemical'
p1179
I3487
sS'exams'
p1180
I1207
sS'bon'
p1181
I1208
sS'yoke'
p1182
I917
sS'mala'
p1183
I2359
sS'studies'
p1184
I1212
sS'pillow'
p1185
I1213
sS'hbs'
p1186
I1214
sS'carpets'
p1187
I1215
sS'adjustable'
p1188
I1218
sS'love'
p1189
I1219
sS'incynk'
p1190
I3055
sS'hiking'
p1191
I1221
sS'extra'
p1192
I1222
sS'dogspot'
p1193
I1223
sS'pathani'
p1194
I728
sS'heena'
p1195
I1225
sS'marvelous'
p1196
I1227
sS'fake'
p1197
I1229
sS'marker'
p1198
I1230
sS'surmount'
p1199
I1231
sS'fbi'
p1200
I1232
sS'acupressure'
p1201
I1653
sS'baby'
p1202
I3378
sS'bulbs'
p1203
I3047
sS'projector'
p1204
I1236
sS'handbags'
p1205
I1237
sS'loafers'
p1206
I3754
sS'dangle'
p1207
I1239
sS'sports'
p1208
I1240
sS'connector'
p1209
I1241
sS'superfibre'
p1210
I1242
sS'andy'
p1211
I1243
sS'iphone'
p1212
I1244
sS'liva'
p1213
I1245
sS'memory'
p1214
I1246
sS'microfiber'
p1215
I1247
sS'olympiad'
p1216
I1248
sS'ribbed'
p1217
I4121
sS'arrest'
p1218
I4024
sS'today'
p1219
I1250
sS'athena'
p1220
I1251
sS'entrance'
p1221
I1252
sS'club'
p1222
I1253
sS'jai'
p1223
I3757
sS'bellina'
p1224
I1256
sS'moyu'
p1225
I3921
sS'chocolate'
p1226
I1257
sS'dumbell'
p1227
I1258
sS'olive'
p1228
I1259
sS'goldstar'
p1229
I1260
sS'studded'
p1230
I1796
sS'sanskruti'
p1231
I1262
sS'fly'
p1232
I1263
sS'graphic'
p1233
I1264
sS'fourths'
p1234
I1265
sS'captcha'
p1235
I284
sS'molife'
p1236
I1268
sS'car'
p1237
I1269
sS'cap'
p1238
I1270
sS'cat'
p1239
I1271
sS'decker'
p1240
I1272
sS'soup'
p1241
I1273
sS'vega'
p1242
I1274
sS'can'
p1243
I1275
sS'cam'
p1244
I1276
sS'cal'
p1245
I1277
sS'coral'
p1246
I929
sS'heart'
p1247
I1280
sS'crazy'
p1248
I1281
sS'earphone'
p1249
I1282
sS'stream'
p1250
I1283
sS'nexus'
p1251
I1284
sS'december'
p1252
I1285
sS'awesome'
p1253
I1286
sS'sample'
p1254
I165
sS'drawer'
p1255
I1288
sS'fortuner'
p1256
I1289
sS'chin'
p1257
I94
sS'stackable'
p1258
I2375
sS'razai'
p1259
I1292
sS'spa'
p1260
I1293
sS'balaclava'
p1261
I1294
sS'stole'
p1262
I1295
sS'organizer'
p1263
I1296
sS'spf'
p1264
I1297
sS'pink'
p1265
I1298
sS'litre'
p1266
I1299
sS'winter'
p1267
I1300
sS'necklaces'
p1268
I1301
sS'range'
p1269
I4149
sS'freezer'
p1270
I1303
sS'scooty'
p1271
I1304
sS'lounge'
p1272
I1305
sS'nyn'
p1273
I1306
sS'pure'
p1274
I1307
sS'elephant'
p1275
I1308
sS'kozdiko'
p1276
I933
sS'puri'
p1277
I1310
sS'axis'
p1278
I2379
sS'divider'
p1279
I1312
sS'economy'
p1280
I1313
sS'kizashi'
p1281
I1314
sS'product'
p1282
I1315
sS'designer'
p1283
I1316
sS'laundry'
p1284
I1317
sS'explorer'
p1285
I1318
sS'cocktail'
p1286
I1319
sS'aging'
p1287
I1320
sS'max'
p1288
I1321
sS'dive'
p1289
I1322
sS'spot'
p1290
I1323
sS'felizo'
p1291
I1324
sS'diva'
p1292
I1325
sS'accessory'
p1293
I1326
sS'levi'
p1294
I1327
sS'birthday'
p1295
I1328
sS'mag'
p1296
I1329
sS'matt'
p1297
I3557
sS'date'
p1298
I1330
sS'mah'
p1299
I1331
sS'araham'
p1300
I1332
sS'dove'
p1301
I1333
sS'grow'
p1302
I1334
sS'lifting'
p1303
I1335
sS'man'
p1304
I1336
sS'natural'
p1305
I1338
sS'waist'
p1306
I1339
sS'johnson'
p1307
I1340
sS'joint'
p1308
I3773
sS'bean'
p1309
I3774
sS'microfibre'
p1310
I3878
sS'ghf'
p1311
I1344
sS'mango'
p1312
I1345
sS'truck'
p1313
I1346
sS'lagoon'
p1314
I3697
sS'basket'
p1315
I1348
sS'bachini'
p1316
I3577
sS'talk'
p1317
I1349
sS'cute'
p1318
I1350
sS'serving'
p1319
I1351
sS'shield'
p1320
I1352
sS'digitru'
p1321
I1353
sS'gkidz'
p1322
I1354
sS'hdd'
p1323
I1827
sS'midnight'
p1324
I1355
sS'opti'
p1325
I3636
sS'canary'
p1326
I1356
sS'years'
p1327
I1357
sS'arm'
p1328
I3686
sS'brain'
p1329
I1358
sS'chapterwise'
p1330
I1360
sS'shake'
p1331
I1361
sS'bipha'
p1332
I1362
sS'cold'
p1333
I1363
sS'kaju'
p1334
I1364
sS'birds'
p1335
I1365
sS'aquasafe'
p1336
I1366
sS'adhesive'
p1337
I1367
sS'satya'
p1338
I1368
sS'thumb'
p1339
I1369
sS'forme'
p1340
I1370
sS'sata'
p1341
I1371
sS'willow'
p1342
I1372
sS'kalenji'
p1343
I1373
sS'amazing'
p1344
I1374
sS'hanky'
p1345
I1375
sS'window'
p1346
I1376
sS'creations'
p1347
I1377
sS'blends'
p1348
I721
sS'unicott'
p1349
I1379
sS'morelife'
p1350
I1380
sS'tiara'
p1351
I1381
sS'monopod'
p1352
I1382
sS'cutter'
p1353
I1384
sS'omron'
p1354
I1678
sS'non'
p1355
I1386
sS'hop'
p1356
I1388
sS'killer'
p1357
I1390
sS'kundan'
p1358
I1392
sS'hala'
p1359
I1393
sS'lunch'
p1360
I1394
sS'anson'
p1361
I1395
sS'aer'
p1362
I3783
sS'hamilton'
p1363
I1396
sS'safari'
p1364
I1397
sS'half'
p1365
I1398
sS'not'
p1366
I1399
sS'accusure'
p1367
I3594
sS'bath'
p1368
I938
sS'qhm'
p1369
I1401
sS'term'
p1370
I1402
sS'flexi'
p1371
I1403
sS'dida'
p1372
I1404
sS'name'
p1373
I1405
sS'argan'
p1374
I2393
sS'hancock'
p1375
I1407
sS'drop'
p1376
I1408
sS'guava'
p1377
I2688
sS'rock'
p1378
I1410
sS'quarter'
p1379
I1411
sS'vogue'
p1380
I1412
sS'turtle'
p1381
I1413
sS'bicycle'
p1382
I1414
sS'square'
p1383
I1415
sS'buccino'
p1384
I1416
sS'lam'
p1385
I1418
sS'amzer'
p1386
I1419
sS'revised'
p1387
I1421
sS'lycra'
p1388
I1423
sS'richly'
p1389
I1424
sS'easyfone'
p1390
I1425
sS'samco'
p1391
I1686
sS'year'
p1392
I1427
sS'girl'
p1393
I1428
sS'alessia'
p1394
I1429
sS'pills'
p1395
I1430
sS'moisturising'
p1396
I1431
sS'canvas'
p1397
I1432
sS'container'
p1398
I1433
sS'stitch'
p1399
I1434
sS'space'
p1400
I1436
sS'blu'
p1401
I1437
sS'sbuys'
p1402
I1438
sS'viscose'
p1403
I1439
sS'factory'
p1404
I1440
sS'hankerchiefs'
p1405
I3701
sS'blr'
p1406
I1441
sS'attitude'
p1407
I2429
sS'opener'
p1408
I1442
sS'blk'
p1409
I1444
sS'hitech'
p1410
I42
sS'formula'
p1411
I1446
sS'sensor'
p1412
I1447
sS'oshop'
p1413
I1448
sS'she'
p1414
I3792
sS'eagle'
p1415
I2418
sS'laxmipati'
p1416
I1451
sS'monster'
p1417
I1452
sS'bhringraj'
p1418
I1453
sS'thong'
p1419
I1454
sS'mist'
p1420
I2556
sS'cars'
p1421
I102
sS'jaipuri'
p1422
I1456
sS'flyer'
p1423
I1459
sS'california'
p1424
I1460
sS'vinyl'
p1425
I1461
sS'tuner'
p1426
I2701
sS'org'
p1427
I1463
sS'headband'
p1428
I1464
sS'marine'
p1429
I159
sS'card'
p1430
I1466
sS'care'
p1431
I1467
sS'hypnotex'
p1432
I1468
sS'watts'
p1433
I184
sS'flare'
p1434
I1470
sS'shahnaz'
p1435
I1471
sS'headphones'
p1436
I1472
sS'programming'
p1437
I1473
sS'castell'
p1438
I1474
sS'british'
p1439
I1475
sS'handicrafts'
p1440
I302
sS'mesh'
p1441
I1477
sS'footwear'
p1442
I1478
sS'nivia'
p1443
I252
sS'router'
p1444
I1480
sS'chhipa'
p1445
I1698
sS'jazzup'
p1446
I1482
sS'first'
p1447
I1483
sS'exotic'
p1448
I277
sS'henry'
p1449
I186
sS'onn'
p1450
I1487
sS'wallders'
p1451
I1490
sS'gionee'
p1452
I1491
sS'nutritional'
p1453
I1492
sS'cur'
p1454
I2962
sS'blink'
p1455
I321
sS'inu'
p1456
I4207
sS'fast'
p1457
I2351
sS'accu'
p1458
I352
sS'ons'
p1459
I1497
sS'ring'
p1460
I357
sS'soch'
p1461
I3097
sS'open'
p1462
I1500
sS'engineer'
p1463
I1216
sS'sheep'
p1464
I1502
sS'city'
p1465
I1503
sS'little'
p1466
I384
sS'law'
p1467
I1505
sS'checked'
p1468
I390
sS'ctet'
p1469
I1507
sS'plastic'
p1470
I1509
sS'bolt'
p1471
I1510
sS'freebie'
p1472
I1511
sS'moisture'
p1473
I1512
sS'shoppers'
p1474
I1513
sS'masala'
p1475
I1514
sS'white'
p1476
I1515
sS'cooling'
p1477
I1516
sS'yepmecasual'
p1478
I1517
sS'ias'
p1479
I1518
sS'elance'
p1480
I1519
sS'nutrition'
p1481
I481
sS'mop'
p1482
I1934
sS'aurelia'
p1483
I1521
sS'hub'
p1484
I1522
sS'payjama'
p1485
I1523
sS'memo'
p1486
I672
sS'suit'
p1487
I3099
sS'alan'
p1488
I1526
sS'padding'
p1489
I1527
sS'massager'
p1490
I1528
sS'shock'
p1491
I3253
sS'rudraksh'
p1492
I3539
sS'padukone'
p1493
I2874
sS'swisstyle'
p1494
I1531
sS'quad'
p1495
I1532
sS'flowers'
p1496
I549
sS'holder'
p1497
I1534
sS'milton'
p1498
I1535
sS'wide'
p1499
I1536
sS'talkies'
p1500
I1537
sS'fushia'
p1501
I3804
sS'chek'
p1502
I1539
sS'coats'
p1503
I1540
sS'patiyala'
p1504
I624
sS'artmagik'
p1505
I1542
sS'glossy'
p1506
I1543
sS'aesthetic'
p1507
I1544
sS'letters'
p1508
I4136
sS'scuba'
p1509
I1548
sS'tractor'
p1510
I1549
sS'pre'
p1511
I667
sS'mangal'
p1512
I673
sS'rene'
p1513
I1552
sS'san'
p1514
I1553
sS'angel'
p1515
I685
sS'enfield'
p1516
I4029
sS'pro'
p1517
I1555
sS'prn'
p1518
I1556
sS'briefs'
p1519
I708
sS'jewels'
p1520
I1558
sS'medium'
p1521
I1560
sS'suspense'
p1522
I1561
sS'pastry'
p1523
I1562
sS'allen'
p1524
I1563
sS'turner'
p1525
I1564
sS'sap'
p1526
I1565
sS'any'
p1527
I1567
sS'batting'
p1528
I1568
sS'superman'
p1529
I1
sS'bakeware'
p1530
I1570
sS'speakers'
p1531
I1571
sS'hooded'
p1532
I1572
sS'corbett'
p1533
I775
sS'inches'
p1534
I3101
sS'inr'
p1535
I4210
sS'fashionable'
p1536
I1574
sS'basicare'
p1537
I1575
sS'ramcha'
p1538
I1576
sS'ideas'
p1539
I1577
sS'zoo'
p1540
I1578
sS'note'
p1541
I1579
sS'sciences'
p1542
I1580
sS'ideal'
p1543
I1581
sS'hookah'
p1544
I1582
sS'ftr'
p1545
I2495
sS'thermometer'
p1546
I834
sS'objective'
p1547
I839
sS'performance'
p1548
I1586
sS'personalized'
p1549
I1587
sS'romper'
p1550
I1588
sS'channel'
p1551
I1589
sS'wrench'
p1552
I2413
sS'surf'
p1553
I866
sS'urge'
p1554
I1591
sS'kartaya'
p1555
I1592
sS'kesar'
p1556
I879
sS'pain'
p1557
I1594
sS'fabdeal'
p1558
I1053
sS'normal'
p1559
I1596
sS'tornado'
p1560
I1337
sS'price'
p1561
I1598
sS'numero'
p1562
I1600
sS'uya'
p1563
I1601
sS'beta'
p1564
I1602
sS'iws'
p1565
I1603
sS'printed'
p1566
I1604
sS'sheets'
p1567
I1605
sS'crochet'
p1568
I1606
sS'pair'
p1569
I1607
sS'knee'
p1570
I1608
sS'america'
p1571
I959
sS'icon'
p1572
I1610
sS'vixenwrap'
p1573
I1611
sS'forever'
p1574
I1612
sS'enamel'
p1575
I1613
sS'boys'
p1576
I3106
sS'neckkurta'
p1577
I1006
sS'sale'
p1578
I1022
sS'pebbleyard'
p1579
I1617
sS'mrs'
p1580
I1026
sS'fille'
p1581
I1619
sS'rexine'
p1582
I1620
sS'instacook'
p1583
I143
sS'axe'
p1584
I1622
sS'stockings'
p1585
I1623
sS'professional'
p1586
I1624
sS'senior'
p1587
I1625
sS'soha'
p1588
I1626
sS'luxor'
p1589
I1627
sS'quantity'
p1590
I1628
sS'shop'
p1591
I1629
sS'walking'
p1592
I1080
sS'tron'
p1593
I1088
sS'foaming'
p1594
I1633
sS'show'
p1595
I1634
sS'lotus'
p1596
I1635
sS'jewelery'
p1597
I1636
sS'atom'
p1598
I3110
sS'contemporary'
p1599
I1638
sS'wool'
p1600
I4039
sS'bright'
p1601
I1640
sS'deco'
p1602
I1409
sS'shoe'
p1603
I1145
sS'corner'
p1604
I1644
sS'geography'
p1605
I1647
sS'woolen'
p1606
I1648
sS'feng'
p1607
I1649
sS'bagkok'
p1608
I1650
sS'cloak'
p1609
I1651
sS'shimmer'
p1610
I1228
sS'shoulder'
p1611
I1391
sS'only'
p1612
I1654
sS'wood'
p1613
I1655
sS'black'
p1614
I1656
sS'raglan'
p1615
I1657
sS'sierra'
p1616
I1659
sS'robe'
p1617
I1660
sS'fort'
p1618
I1661
sS'keyring'
p1619
I3719
sS'joyo'
p1620
I3826
sS'oyedeal'
p1621
I1663
sS'nelf'
p1622
I1664
sS'ionizer'
p1623
I1665
sS'get'
p1624
I1666
sS'cannon'
p1625
I1347
sS'nell'
p1626
I1669
sS'dymatize'
p1627
I1670
sS'ssn'
p1628
I1671
sS'outlet'
p1629
I1672
sS'bracelets'
p1630
I1673
sS'piston'
p1631
I3828
sS'onesport'
p1632
I1674
sS'gen'
p1633
I1675
sS'ssc'
p1634
I330
sS'gel'
p1635
I1677
sS'prime'
p1636
I1385
sS'krishna'
p1637
I1679
sS'resource'
p1638
I1680
sS'artist'
p1639
I1681
sS'leather'
p1640
I1682
sS'mzbin'
p1641
I1683
sS'healthviva'
p1642
I1684
sS'zahab'
p1643
I1685
sS'flomaster'
p1644
I1426
sS'morning'
p1645
I1687
sS'joker'
p1646
I1688
sS'skyline'
p1647
I1689
sS'miles'
p1648
I1690
sS'bison'
p1649
I1691
sS'skintice'
p1650
I1692
sS'kingswood'
p1651
I3809
sS'scott'
p1652
I2431
sS'pants'
p1653
I3830
sS'snapback'
p1654
I1696
sS'vision'
p1655
I1697
sS'titlis'
p1656
I1481
sS'wiki'
p1657
I1699
sS'kook'
p1658
I1736
sS'stag'
p1659
I4242
sS'caller'
p1660
I4036
sS'burst'
p1661
I1702
sS'srfda'
p1662
I1703
sS'notice'
p1663
I1738
sS'kielz'
p1664
I1705
sS'seat'
p1665
I1706
sS'cologne'
p1666
I1707
sS'chromozome'
p1667
I1708
sS'panache'
p1668
I1739
sS'college'
p1669
I1546
sS'revitalizing'
p1670
I3124
sS'seam'
p1671
I1712
sS'parking'
p1672
I1713
sS'hjee'
p1673
I1714
sS'stanley'
p1674
I1715
sS'calendar'
p1675
I1716
sS'sport'
p1676
I1717
sS'gtm'
p1677
I3865
sS'wonder'
p1678
I1719
sS'planet'
p1679
I3125
sS'palette'
p1680
I1721
sS'puma'
p1681
I1722
sS'cwe'
p1682
I3570
sS'shiva'
p1683
I1725
sS'rupa'
p1684
I1726
sS'materials'
p1685
I1727
sS'pump'
p1686
I1728
sS'tynor'
p1687
I1729
sS'landline'
p1688
I1730
sS'diamonds'
p1689
I1731
sS'herbal'
p1690
I1732
sS'sleepwell'
p1691
I2976
sS'geometric'
p1692
I1733
sS'vkc'
p1693
I1734
sS'arrival'
p1694
I1700
sS'loofah'
p1695
I1737
sS'synthetics'
p1696
I1704
sS'ixus'
p1697
I1709
sS'atta'
p1698
I1740
sS'spring'
p1699
I3011
sS'sparx'
p1700
I1742
sS'screen'
p1701
I1743
sS'immitation'
p1702
I1744
sS'guitar'
p1703
I1745
sS'inkovy'
p1704
I1746
sS'jovial'
p1705
I1747
sS'footie'
p1706
I1748
sS'snowbell'
p1707
I1749
sS'recron'
p1708
I1750
sS'spark'
p1709
I1751
sS'comb'
p1710
I1752
sS'tawa'
p1711
I1754
sS'many'
p1712
I1755
sS'trades'
p1713
I1756
sS'quace'
p1714
I1757
sS'officer'
p1715
I1758
sS'pronto'
p1716
I2440
sS'multicolor'
p1717
I1760
sS'jockey'
p1718
I3089
sS'aura'
p1719
I1761
sS'bangle'
p1720
I2441
sS'mani'
p1721
I1764
sS'grooming'
p1722
I1765
sS'oswal'
p1723
I1766
sS'ratnaprash'
p1724
I1767
sS'joe'
p1725
I3837
sS'binatone'
p1726
I1768
sS'uber'
p1727
I3133
sS'color'
p1728
I1769
sS'catbird'
p1729
I1770
sS'roman'
p1730
I3951
sS'jeans'
p1731
I1771
sS'poly'
p1732
I1773
sS'twin'
p1733
I1774
sS'anti'
p1734
I1775
sS'kashana'
p1735
I1776
sS'learning'
p1736
I1777
sS'polo'
p1737
I1779
sS'sassafras'
p1738
I3840
sS'boat'
p1739
I1781
sS'amino'
p1740
I1782
sS'caring'
p1741
I1783
sS'arts'
p1742
I2003
sS'heusen'
p1743
I1785
sS'teddy'
p1744
I1786
sS'stretch'
p1745
I1787
sS'toothpaste'
p1746
I1788
sS'dixcy'
p1747
I1791
sS'mark'
p1748
I1792
sS'tropical'
p1749
I1793
sS'combined'
p1750
I1794
sS'mars'
p1751
I1795
sS'helicopter'
p1752
I1797
sS'mary'
p1753
I1798
sS'smokey'
p1754
I4156
sS'colors'
p1755
I1799
sS'rosra'
p1756
I1800
sS'aero'
p1757
I1801
sS'dezine'
p1758
I4089
sS'antivirus'
p1759
I1803
sS'nikon'
p1760
I1804
sS'ltrs'
p1761
I1805
sS'petrol'
p1762
I1806
sS'covers'
p1763
I130
sS'bonjour'
p1764
I1808
sS'ruby'
p1765
I1810
sS'odyssey'
p1766
I1811
sS'jute'
p1767
I1812
sS'supersox'
p1768
I3847
sS'sound'
p1769
I1814
sS'hdt'
p1770
I1815
sS'kappa'
p1771
I1816
sS'kalpanik'
p1772
I1817
sS'elaichi'
p1773
I1818
sS'kaftan'
p1774
I1819
sS'spiderman'
p1775
I1820
sS'reebok'
p1776
I1821
sS'cash'
p1777
I1824
sS'ecraftindia'
p1778
I1825
sS'colorbar'
p1779
I1826
sS'prafful'
p1780
I782
sS'clr'
p1781
I1828
sS'cock'
p1782
I1829
sS'khushali'
p1783
I1830
sS'slippers'
p1784
I1831
sS'soie'
p1785
I1832
sS'speedwav'
p1786
I1833
sS'aluminium'
p1787
I1834
sS'cum'
p1788
I2971
sS'zenith'
p1789
I1836
sS'soil'
p1790
I1837
sS'inflatable'
p1791
I1838
sS'canon'
p1792
I1839
sS'hills'
p1793
I1840
sS'sleeping'
p1794
I1841
sS'evening'
p1795
I2448
sS'heels'
p1796
I1844
sS'litres'
p1797
I1845
sS'protein'
p1798
I1846
sS'cottinfab'
p1799
I1847
sS'technology'
p1800
I1848
sS'spaces'
p1801
I1850
sS'bags'
p1802
I1851
sS'spunk'
p1803
I1852
sS'nightcat'
p1804
I1855
sS'media'
p1805
I1856
sS'fender'
p1806
I1857
sS'bowl'
p1807
I1858
sS'lava'
p1808
I1859
sS'pad'
p1809
I1860
sS'mehandi'
p1810
I1861
sS'lite'
p1811
I1862
sS'document'
p1812
I1863
sS'pan'
p1813
I1864
sS'berry'
p1814
I1865
sS'sterling'
p1815
I1866
sS'exhaust'
p1816
I1867
sS'finish'
p1817
I1868
sS'zekl'
p1818
I3855
sS'apparels'
p1819
I1869
sS'arden'
p1820
I1870
sS'driver'
p1821
I1871
sS'drives'
p1822
I1872
sS'companion'
p1823
I1873
sS'plantronics'
p1824
I1874
sS'tadka'
p1825
I1875
sS'fruit'
p1826
I1876
sS'wired'
p1827
I1877
sS'extender'
p1828
I1878
sS'statue'
p1829
I1879
sS'panchratna'
p1830
I1880
sS'wheels'
p1831
I1883
sS'quartz'
p1832
I4238
sS'ikkat'
p1833
I1884
sS'daytona'
p1834
I1885
sS'nonstick'
p1835
I1886
sS'charger'
p1836
I1887
sS'tulsi'
p1837
I3237
sS'lucky'
p1838
I3770
sS'radyance'
p1839
I642
sS'bottle'
p1840
I1891
sS'cce'
p1841
I1892
sS'model'
p1842
I1893
sS'modem'
p1843
I1894
sS'tara'
p1844
I3152
sS'ishin'
p1845
I1896
sS'summer'
p1846
I1897
sS'outdoor'
p1847
I1898
sS'azzaro'
p1848
I1899
sS'damochi'
p1849
I1900
sS'being'
p1850
I1901
sS'excel'
p1851
I1902
sS'neon'
p1852
I1903
sS'rest'
p1853
I1905
sS'foot'
p1854
I2458
sS'nicer'
p1855
I1554
sS'touch'
p1856
I1907
sS'polish'
p1857
I1908
sS'flavor'
p1858
I1909
sS'flotters'
p1859
I1910
sS'speed'
p1860
I1911
sS'refills'
p1861
I1912
sS'rover'
p1862
I1913
sS'lehenga'
p1863
I1914
sS'grounded'
p1864
I1915
sS'parad'
p1865
I1916
sS'rose'
p1866
I1917
sS'rosa'
p1867
I1919
sS'brogue'
p1868
I1920
sS'desktop'
p1869
I1921
sS'shopdayz'
p1870
I2987
sS'lets'
p1871
I1922
sS'bank'
p1872
I17
sS'electrical'
p1873
I3157
sS'aviator'
p1874
I3616
sS'videocon'
p1875
I1926
sS'pill'
p1876
I1927
sS'real'
p1877
I1928
sS'styler'
p1878
I1495
sS'around'
p1879
I1930
sS'code'
p1880
I3198
sS'read'
p1881
I1932
sS'vivel'
p1882
I1933
sS'papers'
p1883
I1443
sS'fridge'
p1884
I1935
sS'taparia'
p1885
I1718
sS'dark'
p1886
I1937
sS'penta'
p1887
I1938
sS'semiformal'
p1888
I1939
sS'vacuum'
p1889
I1940
sS'amp'
p1890
I1941
sS'part'
p1891
I2687
sS'lady'
p1892
I1943
sS'rear'
p1893
I1944
sS'shoeadda'
p1894
I1945
sS'quadcopter'
p1895
I1946
sS'kira'
p1896
I1947
sS'fortune'
p1897
I1948
sS'intel'
p1898
I1949
sS'heritagefabs'
p1899
I1950
sS'bandhani'
p1900
I1951
sS'bracelet'
p1901
I1952
sS'syska'
p1902
I1953
sS'saledart'
p1903
I1954
sS'lightning'
p1904
I1955
sS'shutter'
p1905
I1956
sS'intex'
p1906
I1957
sS'maker'
p1907
I3334
sS'blackberry'
p1908
I1958
sS'clay'
p1909
I1960
sS'neutrogena'
p1910
I1961
sS'output'
p1911
I1962
sS'tower'
p1912
I1963
sS'inter'
p1913
I1964
sS'hitansh'
p1914
I1965
sS'brite'
p1915
I1966
sS'sneaker'
p1916
I1967
sS'ezy'
p1917
I1968
sS'verbal'
p1918
I1969
sS'doll'
p1919
I1970
sS'titan'
p1920
I1971
sS'ascend'
p1921
I1972
sS'tvs'
p1922
I1973
sS'trouser'
p1923
I3166
sS'tvj'
p1924
I1976
sS'snoring'
p1925
I1977
sS'matching'
p1926
I1979
sS'moisturizing'
p1927
I1981
sS'viral'
p1928
I1982
sS'slice'
p1929
I3177
sS'wristband'
p1930
I1984
sS'tote'
p1931
I1985
sS'ddr'
p1932
I1986
sS'tube'
p1933
I1987
sS'lotto'
p1934
I1417
sS'exim'
p1935
I1989
sS'models'
p1936
I1991
sS'teardrop'
p1937
I1992
sS'buddha'
p1938
I1993
sS'belkin'
p1939
I3733
sS'knife'
p1940
I1994
sS'measuring'
p1941
I1995
sS'process'
p1942
I3404
sS'football'
p1943
I2084
sS'epson'
p1944
I1997
sS'power'
p1945
I1998
sS'intimate'
p1946
I1999
sS'dee'
p1947
I2000
sS'herringbone'
p1948
I2001
sS'each'
p1949
I2002
sS'facewash'
p1950
I2004
sS'bagua'
p1951
I3174
sS'broken'
p1952
I2006
sS'dicer'
p1953
I2008
sS'patanjali'
p1954
I2009
sS'tds'
p1955
I2010
sS'morphy'
p1956
I2011
sS'strainer'
p1957
I2012
sS'bazaar'
p1958
I2013
sS'leatherette'
p1959
I2014
sS'manufacturer'
p1960
I2015
sS'acc'
p1961
I2016
sS'bianca'
p1962
I3175
sS'stone'
p1963
I2018
sS'choc'
p1964
I2019
sS'central'
p1965
I2020
sS'casuals'
p1966
I2021
sS'ace'
p1967
I2022
sS'package'
p1968
I2023
sS'vsi'
p1969
I4077
sS'island'
p1970
I2024
sS'based'
p1971
I3746
sS'salondry'
p1972
I3176
sS'slender'
p1973
I2027
sS'side'
p1974
I2028
sS'practical'
p1975
I2029
sS'tazon'
p1976
I2030
sS'stand'
p1977
I991
sS'pockets'
p1978
I2032
sS'mixed'
p1979
I2033
sS'rajasthani'
p1980
I2034
sS'addons'
p1981
I2035
sS'zakk'
p1982
I3465
sS'road'
p1983
I2037
sS'chronograph'
p1984
I2038
sS'heater'
p1985
I2039
sS'ladies'
p1986
I2040
sS'cambridge'
p1987
I2041
sS'garnet'
p1988
I1422
sS'image'
p1989
I2043
sS'earring'
p1990
I2044
sS'organics'
p1991
I2045
sS'hanger'
p1992
I2046
sS'fizik'
p1993
I2047
sS'strip'
p1994
I2048
sS'fantasy'
p1995
I2049
sS'your'
p1996
I2050
sS'racquet'
p1997
I2051
sS'mart'
p1998
I2052
sS'grater'
p1999
I2053
sS'her'
p2000
I2054
sS'unisex'
p2001
I2055
sS'gleam'
p2002
I2056
sS'lon'
p2003
I3599
sS'styling'
p2004
I2058
sS'desert'
p2005
I2059
sS'italie'
p2006
I2060
sS'stealth'
p2007
I2061
sS'cats'
p2008
I2062
sS'low'
p2009
I2063
sS'garment'
p2010
I2064
sS'hem'
p2011
I2065
sS'lynda'
p2012
I3251
sS'valley'
p2013
I2066
sS'fish'
p2014
I2483
sS'foam'
p2015
I2513
sS'thermosteel'
p2016
I2068
sS'dsas'
p2017
I2069
sS'jug'
p2018
I15
sS'fanatic'
p2019
I2071
sS'whiteline'
p2020
I2072
sS'eyeliner'
p2021
I2073
sS'tripod'
p2022
I2074
sS'principles'
p2023
I2075
sS'beginners'
p2024
I2076
sS'shapers'
p2025
I2077
sS'cycle'
p2026
I2078
sS'cottage'
p2027
I2079
sS'technologies'
p2028
I2080
sS'with'
p2029
I2081
sS'corduroy'
p2030
I2082
sS'spice'
p2031
I2083
sS'pull'
p2032
I2085
sS'rush'
p2033
I2086
sS'assn'
p2034
I2087
sS'zeel'
p2035
I2088
sS'newladieszone'
p2036
I2089
sS'sukuma'
p2037
I2090
sS'mat'
p2038
I3556
sS'bucket'
p2039
I2091
sS'alveera'
p2040
I2092
sS'acer'
p2041
I3939
sS'strawberry'
p2042
I2093
sS'ashwagandha'
p2043
I2095
sS'toner'
p2044
I2096
sS'flats'
p2045
I2097
sS'rust'
p2046
I2099
sS'lowepro'
p2047
I2100
sS'toilet'
p2048
I2101
sS'taylor'
p2049
I2102
sS'hillson'
p2050
I2103
sS'lint'
p2051
I3103
sS'mayur'
p2052
I2105
sS'sales'
p2053
I2106
sS'watches'
p2054
I2107
sS'kannada'
p2055
I2108
sS'navy'
p2056
I2109
sS'tshirt'
p2057
I2110
sS'file'
p2058
I2112
sS'sheath'
p2059
I2113
sS'adsl'
p2060
I2114
sS'rapido'
p2061
I2115
sS'mastercook'
p2062
I2116
sS'coconut'
p2063
I2117
sS'cream'
p2064
I2118
sS'jacket'
p2065
I59
sS'yoga'
p2066
I2121
sS'vulc'
p2067
I2492
sS'drivers'
p2068
I2123
sS'hybrid'
p2069
I1724
sS'bhagalpuri'
p2070
I2126
sS'tablets'
p2071
I3794
sS'rubber'
p2072
I2127
sS'orrix'
p2073
I1778
sS'protext'
p2074
I2130
sS'mathematics'
p2075
I2131
sS'you'
p2076
I2132
sS'casseroles'
p2077
I2133
sS'polar'
p2078
I2135
sS'sukkhi'
p2079
I2136
sS'vertex'
p2080
I2137
sS'cordless'
p2081
I2138
sS'herbs'
p2082
I2139
sS'chikki'
p2083
I1383
sS'track'
p2084
I1597
sS'coverage'
p2085
I2141
sS'terry'
p2086
I2142
sS'brands'
p2087
I2143
sS'selfcare'
p2088
I2144
sS'brass'
p2089
I2145
sS'pool'
p2090
I2146
sS'regency'
p2091
I2147
sS'lutein'
p2092
I2148
sS'mesleep'
p2093
I2149
sS'wifi'
p2094
I2150
sS'suitings'
p2095
I1790
sS'ayurvedic'
p2096
I2152
sS'dyed'
p2097
I2153
sS'bogesi'
p2098
I2154
sS'ajara'
p2099
I2155
sS'mast'
p2100
I2157
sS'eavan'
p2101
I1302
sS'adam'
p2102
I2159
sS'felizer'
p2103
I2160
sS'apparel'
p2104
I2161
sS'overseas'
p2105
I2162
sS'deluxe'
p2106
I2163
sS'oral'
p2107
I2164
sS'ferrari'
p2108
I1621
sS'kavya'
p2109
I1807
sS'all'
p2110
I6
sS'lace'
p2111
I2168
sS'founder'
p2112
I2169
sS'gown'
p2113
I1073
sS'lomani'
p2114
I2171
sS'ceramic'
p2115
I2172
sS'dollar'
p2116
I40
sS'alc'
p2117
I2174
sS'embriodered'
p2118
I53
sS'slimming'
p2119
I2176
sS'gsc'
p2120
I2942
sS'dotcom'
p2121
I2177
sS'disc'
p2122
I2178
sS'zinc'
p2123
I2180
sS'fairness'
p2124
I2181
sS'dish'
p2125
I2182
sS'meditation'
p2126
I2183
sS'duos'
p2127
I92
sS'religious'
p2128
I2185
sS'skybags'
p2129
I2186
sS'oreva'
p2130
I2187
sS'carpet'
p2131
I2188
sS'synthetic'
p2132
I2189
sS'griffin'
p2133
I2191
sS'multicoloured'
p2134
I2193
sS'handle'
p2135
I3766
sS'sparkling'
p2136
I2194
sS'removal'
p2137
I2195
sS'aaron'
p2138
I162
sS'hotshapers'
p2139
I71
sS'surya'
p2140
I2198
sS'scratch'
p2141
I3203
sS'safety'
p2142
I2200
sS'mufti'
p2143
I2201
sS'case'
p2144
I2786
sS'bras'
p2145
I3891
sS'woman'
p2146
I220
sS'premium'
p2147
I2204
sS'citizen'
p2148
I4028
sS'very'
p2149
I2205
sS'fas'
p2150
I238
sS'jolla'
p2151
I2506
sS'screwdriver'
p2152
I2208
sS'fat'
p2153
I2209
sS'coloured'
p2154
I2210
sS'vera'
p2155
I2211
sS'smartphones'
p2156
I3912
sS'fan'
p2157
I272
sS'fall'
p2158
I282
sS'fab'
p2159
I285
sS'sony'
p2160
I2216
sS'soles'
p2161
I2217
sS'mpz'
p2162
I2218
sS'vero'
p2163
I2219
sS'washing'
p2164
I2220
sS'cable'
p2165
I2221
sS'louis'
p2166
I2222
sS'bucci'
p2167
I2223
sS'roadster'
p2168
I1676
sS'dongle'
p2169
I2224
sS'large'
p2170
I2225
sS'sang'
p2171
I2226
sS'shimmy'
p2172
I2227
sS'globalite'
p2173
I2228
sS'bamberg'
p2174
I3915
sS'small'
p2175
I2230
sS'study'
p2176
I2231
sS'smith'
p2177
I4019
sS'lavanya'
p2178
I402
sS'neoprene'
p2179
I2234
sS'anand'
p2180
I2235
sS'tek'
p2181
I2236
sS'portable'
p2182
I2238
sS'ten'
p2183
I2239
sS'nightdress'
p2184
I2240
sS'colossal'
p2185
I2241
sS'tea'
p2186
I2242
sS'yantra'
p2187
I4124
sS'revlon'
p2188
I2243
sS'tee'
p2189
I2244
sS'haat'
p2190
I2245
sS'zippered'
p2191
I2246
sS'tex'
p2192
I1132
sS'strung'
p2193
I2248
sS'clutches'
p2194
I2977
sS'fiber'
p2195
I2469
sS'design'
p2196
I2250
sS'nba'
p2197
I2251
sS'rectangular'
p2198
I3920
sS'mill'
p2199
I1278
sS'dial'
p2200
I508
sS'abc'
p2201
I2254
sS'imported'
p2202
I2255
sS'drill'
p2203
I3394
sS'nano'
p2204
I2257
sS'clock'
p2205
I2258
sS'sun'
p2206
I2260
sS'sides'
p2207
I3181
sS'brief'
p2208
I2261
sS'burgundy'
p2209
I2262
sS'crush'
p2210
I2263
sS'suv'
p2211
I2264
sS'version'
p2212
I1150
sS'dhoti'
p2213
I2266
sS'racing'
p2214
I2267
sS'contrast'
p2215
I2268
sS'maleboosterpro'
p2216
I3212
sS'full'
p2217
I2270
sS'saree'
p2218
I3213
sS'empower'
p2219
I2273
sS'loose'
p2220
I2274
sS'jutti'
p2221
I2275
sS'beige'
p2222
I4127
sS'modular'
p2223
I2276
sS'tracks'
p2224
I2277
sS'threads'
p2225
I2278
sS'straightener'
p2226
I2279
sS'christy'
p2227
I2134
sS'udv'
p2228
I3625
sS'buy'
p2229
I4169
sS'strong'
p2230
I2281
sS'kanjivaram'
p2231
I4046
sS'legend'
p2232
I2283
sS'coloressence'
p2233
I3214
sS'ultra'
p2234
I3924
sS'colored'
p2235
I2284
sS'vlcc'
p2236
I2285
sS'inspired'
p2237
I2286
sS'miniature'
p2238
I1599
sS'pick'
p2239
I2288
sS'action'
p2240
I2289
sS'narrow'
p2241
I2291
sS'options'
p2242
I2292
sS'vaporizer'
p2243
I2293
sS'trainer'
p2244
I2294
sS'suave'
p2245
I3217
sS'adidas'
p2246
I2296
sS'skoda'
p2247
I2298
sS'demin'
p2248
I2299
sS'yuphoria'
p2249
I2300
sS'cosmetic'
p2250
I2302
sS'young'
p2251
I3218
sS'vip'
p2252
I2305
sS'snug'
p2253
I858
sS'aptitude'
p2254
I2307
sS'toys'
p2255
I2308
sS'fabfirki'
p2256
I2309
sS'florence'
p2257
I2310
sS'select'
p2258
I2311
sS'airwalk'
p2259
I2312
sS'eye'
p2260
I920
sS'takes'
p2261
I2314
sS'nehru'
p2262
I2315
sS'maybelline'
p2263
I2316
sS'jan'
p2264
I3753
sS'two'
p2265
I2317
sS'eyp'
p2266
I961
sS'artzz'
p2267
I2319
sS'jivi'
p2268
I2320
sS'fragrance'
p2269
I2321
sS'gorgeous'
p2270
I2322
sS'muscleblaze'
p2271
I2323
sS'branded'
p2272
I2324
sS'wiper'
p2273
I2325
sS'more'
p2274
I2326
sS'hypernation'
p2275
I2327
sS'turbo'
p2276
I2328
sS'diamond'
p2277
I1024
sS'door'
p2278
I2330
sS'flap'
p2279
I2331
sS'ibps'
p2280
I2332
sS'tester'
p2281
I2333
sS'immersion'
p2282
I2334
sS'company'
p2283
I2335
sS'marks'
p2284
I2336
sS'pairs'
p2285
I2529
sS'tested'
p2286
I2338
sS'takecare'
p2287
I2339
sS'stethoscope'
p2288
I2340
sS'stick'
p2289
I2341
sS'foundations'
p2290
I2343
sS'suction'
p2291
I2344
sS'mounted'
p2292
I2345
sS'grill'
p2293
I2346
sS'fleece'
p2294
I2347
sS'huma'
p2295
I2348
sS'brunita'
p2296
I2349
sS'world'
p2297
I4118
sS'sleeveless'
p2298
I502
sS'dev'
p2299
I2352
sS'hindware'
p2300
I2353
sS'ning'
p2301
I202
sS'deo'
p2302
I2355
sS'bajaj'
p2303
I1199
sS'lighter'
p2304
I2357
sS'marble'
p2305
I832
sS'history'
p2306
I1211
sS'beautiful'
p2307
I2360
sS'transcend'
p2308
I2361
sS'pony'
p2309
I2363
sS'salted'
p2310
I2364
sS'heat'
p2311
I2365
sS'brown'
p2312
I1108
sS'alba'
p2313
I2366
sS'enveloped'
p2314
I2776
sS'straightner'
p2315
I2368
sS'wallet'
p2316
I3288
sS'cation'
p2317
I2369
sS'hhb'
p2318
I2370
sS'khadi'
p2319
I2371
sS'smartphone'
p2320
I2372
sS'mahindra'
p2321
I2373
sS'estyle'
p2322
I2374
sS'dabur'
p2323
I1291
sS'magenta'
p2324
I2376
sS'dress'
p2325
I2377
sS'biotique'
p2326
I2378
sS'bogo'
p2327
I1311
sS'csm'
p2328
I2380
sS'filter'
p2329
I2381
sS'dazzle'
p2330
I2382
sS'court'
p2331
I2383
sS'derma'
p2332
I2384
sS'conical'
p2333
I3943
sS'lyra'
p2334
I2385
sS'hugo'
p2335
I2386
sS'algorithms'
p2336
I2387
sS'aujjessa'
p2337
I2388
sS'cleansing'
p2338
I2389
sS'xxxl'
p2339
I2390
sS'menus'
p2340
I2391
sS'venky'
p2341
I2392
sS'field'
p2342
I3689
sS'clarks'
p2343
I1406
sS'plant'
p2344
I2394
sS'sandwich'
p2345
I2395
sS'kawachi'
p2346
I2396
sS'bumper'
p2347
I2538
sS'internet'
p2348
I1445
sS'herbals'
p2349
I2399
sS'director'
p2350
I2400
sS'blood'
p2351
I2401
sS'gopal'
p2352
I2402
sS'enthopia'
p2353
I2404
sS'bloom'
p2354
I2405
sS'flutter'
p2355
I2406
sS'versace'
p2356
I3964
sS'short'
p2357
I2408
sS'coat'
p2358
I2409
sS'electron'
p2359
I3240
sS'krafts'
p2360
I2411
sS'egk'
p2361
I2412
sS'programmer'
p2362
I4219
sS'satins'
p2363
I1172
sS'shade'
p2364
I2414
sS'crafts'
p2365
I2415
sS'streetwear'
p2366
I2416
sS'cardin'
p2367
I3429
sS'egg'
p2368
I1615
sS'blanc'
p2369
I3521
sS'xolo'
p2370
I2420
sS'infant'
p2371
I2421
sS'pant'
p2372
I2422
sS'september'
p2373
I2423
sS'essence'
p2374
I1658
sS'mousse'
p2375
I2425
sS'arta'
p2376
I2426
sS'mdzm'
p2377
I1959
sS'held'
p2378
I2428
sS'thermal'
p2379
I2129
sS'paper'
p2380
I2430
sS'brio'
p2381
I1695
sS'hell'
p2382
I2432
sS'avenue'
p2383
I2433
sS'jolly'
p2384
I2501
sS'janasya'
p2385
I2434
sS'style'
p2386
I2436
sS'pens'
p2387
I2437
sS'nhc'
p2388
I2438
sS'wrn'
p2389
I1759
sS'pcs'
p2390
I1763
sS'border'
p2391
I3675
sS'mattress'
p2392
I2442
sS'blenders'
p2393
I2443
sS'peanuts'
p2394
I2444
sS'soccer'
p2395
I2120
sS'sauce'
p2396
I2446
sS'good'
p2397
I1842
sS'brasso'
p2398
I4164
sS'food'
p2399
I2449
sS'gadget'
p2400
I2450
sS'cel'
p2401
I2451
sS'hunter'
p2402
I2452
sS'wega'
p2403
I2453
sS'varanga'
p2404
I2124
sS'casio'
p2405
I2455
sS'fiama'
p2406
I576
sS'uhs'
p2407
I2457
sS'party'
p2408
I3958
sS'oxford'
p2409
I1906
sS'hearing'
p2410
I2459
sS'bollywood'
p2411
I2460
sS'slipper'
p2412
I2550
sS'nht'
p2413
I617
sS'stripe'
p2414
I2463
sS'fully'
p2415
I2464
sS'rucf'
p2416
I2465
sS'drake'
p2417
I2466
sS'micro'
p2418
I2467
sS'ecru'
p2419
I2468
sS'eva'
p2420
I2470
sS'fairy'
p2421
I2471
sS'button'
p2422
I3252
sS'exquisite'
p2423
I2474
sS'miroir'
p2424
I1485
sS'status'
p2425
I2476
sS'jacquard'
p2426
I2477
sS'england'
p2427
I2478
sS'chopper'
p2428
I2479
sS'weight'
p2429
I2480
sS'generation'
p2430
I2481
sS'house'
p2431
I2482
sS'energy'
p2432
I2067
sS'hard'
p2433
I2484
sS'idea'
p2434
I2485
sS'organiser'
p2435
I2486
sS'internal'
p2436
I2654
sS'asquare'
p2437
I2094
sS'kajal'
p2438
I2488
sS'quantum'
p2439
I2490
sS'blues'
p2440
I2491
sS'backpacks'
p2441
I2122
sS'pindia'
p2442
I2493
sS'bikers'
p2443
I1135
sS'flower'
p2444
I2140
sS'lipstick'
p2445
I2496
sS'item'
p2446
I1762
sS'faux'
p2447
I3672
sS'glitter'
p2448
I2557
sS'comforters'
p2449
I2499
sS'pigeon'
p2450
I2500
sS'glucometer'
p2451
I2237
sS'wolverine'
p2452
I2502
sS'daller'
p2453
I2503
sS'health'
p2454
I1170
sS'shipment'
p2455
I2505
sS'paradise'
p2456
I2207
sS'print'
p2457
I2507
sS'learners'
p2458
I2509
sS'radhika'
p2459
I2558
sS'issue'
p2460
I2511
sS'rhodium'
p2461
I2512
sS'asp'
p2462
I2249
sS'bass'
p2463
I2514
sS'fabindia'
p2464
I2515
sS'ishake'
p2465
I1538
sS'guess'
p2466
I2561
sS'mms'
p2467
I909
sS'protoner'
p2468
I2519
sS'loafer'
p2469
I2520
sS'base'
p2470
I2521
sS'cookie'
p2471
I2290
sS'por'
p2472
I2523
sS'tassels'
p2473
I2524
sS'sbh'
p2474
I2525
sS'sauna'
p2475
I3967
sS'kings'
p2476
I3870
sS'asm'
p2477
I2526
sS'fiat'
p2478
I2527
sS'gluco'
p2479
I1566
sS'faucet'
p2480
I2337
sS'thread'
p2481
I2530
sS'shringaar'
p2482
I3265
sS'babyliss'
p2483
I2531
sS'running'
p2484
I2532
sS'bloues'
p2485
I2533
sS'introduction'
p2486
I2565
sS'american'
p2487
I2535
sS'canister'
p2488
I2536
sS'stretchable'
p2489
I2537
sS'daisy'
p2490
I2398
sS'innerwear'
p2491
I2539
sS'pot'
p2492
I2540
sS'castle'
p2493
I2541
sS'cdma'
p2494
I359
sS'top'
p2495
I2543
sS'anokhi'
p2496
I3587
sS'copper'
p2497
I2544
sS'ogx'
p2498
I3329
sS'blush'
p2499
I2542
sS'feel'
p2500
I2546
sS'bhai'
p2501
I2547
sS'number'
p2502
I2548
sS'fancy'
p2503
I2549
sS'feet'
p2504
I2461
sS'muffler'
p2505
I2297
sS'pop'
p2506
I2552
sS'kobo'
p2507
I2553
sS'wildhide'
p2508
I2554
sS'alfa'
p2509
I2555
sS'cups'
p2510
I1888
sS'miss'
p2511
I2498
sS'nutrus'
p2512
I2510
sS'hdclair'
p2513
I2559
sS'razor'
p2514
I2560
sS'horse'
p2515
I2517
sS'ermis'
p2516
I2562
sS'jet'
p2517
I2563
sS'paint'
p2518
I2564
sS'blossom'
p2519
I2534
sS'swipe'
p2520
I2566
sS'tata'
p2521
I2567
sS'comfy'
p2522
I2568
sS'cartoon'
p2523
I2569
sS'towel'
p2524
I2304
sS'station'
p2525
I2571
sS'dfh'
p2526
I2572
sS'storm'
p2527
I2573
sS'jee'
p2528
I2574
sS'flipside'
p2529
I3700
sS'ton'
p2530
I2575
sS'essays'
p2531
I2576
sS'compartment'
p2532
I2577
sS'banana'
p2533
I2578
sS'mobiles'
p2534
I2579
sS'nutri'
p2535
I2580
sS'option'
p2536
I2581
sS'spykar'
p2537
I2582
sS'anodized'
p2538
I2584
sS'needle'
p2539
I2585
sS'park'
p2540
I2586
sS'aannie'
p2541
I3976
sS'pari'
p2542
I2588
sS'discover'
p2543
I2589
sS'draped'
p2544
I2590
sS'sam'
p2545
I2957
sS'havells'
p2546
I2591
sS'optical'
p2547
I18
sS'cartridges'
p2548
I2593
sS'boots'
p2549
I3274
sS'neosafe'
p2550
I291
sS'wayfarer'
p2551
I2596
sS'albums'
p2552
I2597
sS'alvaro'
p2553
I3275
sS'grace'
p2554
I2600
sS'purifier'
p2555
I4004
sS'relieves'
p2556
I2601
sS'king'
p2557
I544
sS'nakoda'
p2558
I2603
sS'freshner'
p2559
I2604
sS'frock'
p2560
I2605
sS'tooth'
p2561
I2606
sS'double'
p2562
I158
sS'aao'
p2563
I2608
sS'aai'
p2564
I2609
sS'grey'
p2565
I2610
sS'salwar'
p2566
I3999
sS'youth'
p2567
I763
sS'tummy'
p2568
I2612
sS'bansidhar'
p2569
I2613
sS'cuff'
p2570
I2614
sS'store'
p2571
I2615
sS'macro'
p2572
I2616
sS'dispenser'
p2573
I1489
sS'chumbak'
p2574
I2618
sS'aarika'
p2575
I1488
sS'mink'
p2576
I2620
sS'colour'
p2577
I3982
sS'voucher'
p2578
I2622
sS'mickey'
p2579
I2623
sS'cleaner'
p2580
I1178
sS'uiproduct'
p2581
I2625
sS'abs'
p2582
I2265
sS'kart'
p2583
I2626
sS'urban'
p2584
I1735
sS'bhc'
p2585
I2629
sS'greenwich'
p2586
I2630
sS'juice'
p2587
I2631
sS'husain'
p2588
I2632
sS'graffiti'
p2589
I2634
sS'morepen'
p2590
I2637
sS'length'
p2591
I3592
sS'bht'
p2592
I2638
sS'sell'
p2593
I2639
sS'ballerina'
p2594
I2640
sS'jaquar'
p2595
I2641
sS'cardigan'
p2596
I814
sS'built'
p2597
I2643
sS'lib'
p2598
I2644
sS'ranger'
p2599
I2645
sS'lil'
p2600
I2646
sS'nighty'
p2601
I2647
sS'self'
p2602
I2648
sS'freshener'
p2603
I2649
sS'camouflage'
p2604
I2650
sS'reliance'
p2605
I2651
sS'accupressure'
p2606
I2652
sS'liv'
p2607
I2653
sS'breeze'
p2608
I1890
sS'lip'
p2609
I2655
sS'parchayee'
p2610
I2656
sS'butterflies'
p2611
I1476
sS'victor'
p2612
I3285
sS'brace'
p2613
I2658
sS'tool'
p2614
I2659
sS'transparent'
p2615
I3518
sS'play'
p2616
I2660
sS'brendon'
p2617
I2661
sS'haltung'
p2618
I2662
sS'electric'
p2619
I2663
sS'cargo'
p2620
I2664
sS'sweatshirts'
p2621
I2665
sS'sets'
p2622
I3988
sS'salmon'
p2623
I2667
sS'cigarette'
p2624
I2545
sS'virus'
p2625
I2669
sS'charm'
p2626
I2670
sS'amar'
p2627
I2671
sS'watt'
p2628
I2672
sS'seasons'
p2629
I1809
sS'prestige'
p2630
I2674
sS'refrigerator'
p2631
I2675
sS'mach'
p2632
I2676
sS'creators'
p2633
I2898
sS'grams'
p2634
I2678
sS'flite'
p2635
I2679
sS'windows'
p2636
I2156
sS'shilpkart'
p2637
I2681
sS'clear'
p2638
I2682
sS'opaque'
p2639
I2683
sS'cover'
p2640
I2684
sS'bound'
p2641
I3832
sS'setof'
p2642
I2685
sS'traditional'
p2643
I2686
sS'treasures'
p2644
I2592
sS'clean'
p2645
I2689
sS'fashions'
p2646
I2690
sS'asus'
p2647
I2691
sS'rechargeable'
p2648
I2692
sS'blend'
p2649
I2693
sS'microsoft'
p2650
I2694
sS'terravulc'
p2651
I4003
sS'stones'
p2652
I2695
sS'hrithik'
p2653
I2696
sS'amaze'
p2654
I2697
sS'cruiser'
p2655
I193
sS'sparrow'
p2656
I2699
sS'blended'
p2657
I2700
sS'league'
p2658
I3895
sS'moroccan'
p2659
I2702
sS'wagharia'
p2660
I2944
sS'crayon'
p2661
I2705
sS'fino'
p2662
I1249
sS'cds'
p2663
I2707
sS'coaster'
p2664
I2708
sS'melody'
p2665
I2709
sS'fine'
p2666
I2710
sS'ramzy'
p2667
I2711
sS'blender'
p2668
I2712
sS'impact'
p2669
I2713
sS'indicator'
p2670
I2715
sS'thisrupt'
p2671
I2716
sS'keychain'
p2672
I2717
sS'parachute'
p2673
I3383
sS'kada'
p2674
I2719
sS'fasnoya'
p2675
I2633
sS'less'
p2676
I4001
sS'ambaji'
p2677
I2722
sS'powerbank'
p2678
I2723
sS'kafe'
p2679
I3295
sS'thankar'
p2680
I1071
sS'money'
p2681
I2726
sS'kapoor'
p2682
I4240
sS'columns'
p2683
I2727
sS'bhama'
p2684
I2728
sS'dosa'
p2685
I2729
sS'hit'
p2686
I2730
sS'waterproof'
p2687
I2732
sS'liquid'
p2688
I3644
sS'express'
p2689
I2734
sS'sunny'
p2690
I2735
sS'grocery'
p2691
I2736
sS'famous'
p2692
I2737
sS'capsule'
p2693
I2738
sS'lenovo'
p2694
I2739
sS'hid'
p2695
I2740
sS'compass'
p2696
I2741
sS'tunic'
p2697
I2742
sS'silk'
p2698
I2743
sS'bird'
p2699
I3299
sS'winsome'
p2700
I2744
sS'audio'
p2701
I3991
sS'steelo'
p2702
I4015
sS'sleeve'
p2703
I2745
sS'anouk'
p2704
I2746
sS'tracksuit'
p2705
I2747
sS'gwalior'
p2706
I2749
sS'perfume'
p2707
I2750
sS'banking'
p2708
I2751
sS'folding'
p2709
I3905
sS'balaji'
p2710
I2752
sS'gloves'
p2711
I2753
sS'polycotton'
p2712
I2607
sS'mahavir'
p2713
I2755
sS'decors'
p2714
I3302
sS'duty'
p2715
I2757
sS'set'
p2716
I2758
sS'art'
p2717
I958
sS'bikenwear'
p2718
I2760
sS'jade'
p2719
I2761
sS'rhinestone'
p2720
I2762
sS'ayurveda'
p2721
I2763
sS'mantra'
p2722
I2764
sS'pvc'
p2723
I1181
sS'individual'
p2724
I2766
sS'aztec'
p2725
I2767
sS'sea'
p2726
I2768
sS'peacock'
p2727
I2170
sS'camerii'
p2728
I2770
sS'modish'
p2729
I2771
sS'comfort'
p2730
I2772
sS'sportswear'
p2731
I821
sS'kraasa'
p2732
I2774
sS'socks'
p2733
I4139
sS'recording'
p2734
I2611
sS'revolution'
p2735
I2778
sS'degree'
p2736
I3305
sS'expert'
p2737
I2780
sS'ktm'
p2738
I2781
sS'satin'
p2739
I2782
sS'wow'
p2740
I2783
sS'burner'
p2741
I2784
sS'rod'
p2742
I2206
sS'klub'
p2743
I2785
sS'vedanta'
p2744
I2787
sS'cherry'
p2745
I1632
sS'riti'
p2746
I2789
sS'bellies'
p2747
I956
sS'gathered'
p2748
I3308
sS'wob'
p2749
I2793
sS'cancelling'
p2750
I2794
sS'solo'
p2751
I2795
sS'unisopent'
p2752
I2796
sS'creatine'
p2753
I2797
sS'biba'
p2754
I2798
sS'yepme'
p2755
I2799
sS'sole'
p2756
I2800
sS'carter'
p2757
I3909
sS'dts'
p2758
I2617
sS'spray'
p2759
I2802
sS'rapid'
p2760
I4014
sS'printing'
p2761
I3172
sS'leo'
p2762
I3311
sS'zipper'
p2763
I2803
sS'bronze'
p2764
I2804
sS'rasasi'
p2765
I250
sS'ptna'
p2766
I2807
sS'caprese'
p2767
I2769
sS'mega'
p2768
I2809
sS'technica'
p2769
I2810
sS'tapered'
p2770
I2811
sS'invictus'
p2771
I2812
sS'sonata'
p2772
I4000
sS'henley'
p2773
I2814
sS'sensitive'
p2774
I2815
sS'connection'
p2775
I2816
sS'palazzo'
p2776
I1585
sS'suede'
p2777
I2817
sS'boxers'
p2778
I2818
sS'vault'
p2779
I2819
sS'protector'
p2780
I2820
sS'cozi'
p2781
I2822
sS'tgp'
p2782
I2823
sS'jainx'
p2783
I4018
sS'majesty'
p2784
I1741
sS'point'
p2785
I222
sS'simple'
p2786
I1343
sS'sweet'
p2787
I2827
sS'harbour'
p2788
I1529
sS'gypsy'
p2789
I2830
sS'fashion'
p2790
I2232
sS'laxmi'
p2791
I2832
sS'village'
p2792
I2833
sS'dongre'
p2793
I4022
sS'dream'
p2794
I2417
sS'ferrero'
p2795
I2834
sS'belt'
p2796
I2835
sS'catwalk'
p2797
I2836
sS'souffle'
p2798
I2837
sS'suspenders'
p2799
I2838
sS'java'
p2800
I2839
sS'duo'
p2801
I2840
sS'stamp'
p2802
I2841
sS'multipurpose'
p2803
I2627
sS'political'
p2804
I2842
sS'corelle'
p2805
I2843
sS'secret'
p2806
I2845
sS'brick'
p2807
I2846
sS'attire'
p2808
I3297
sS'delights'
p2809
I2847
sS'treatment'
p2810
I1923
sS'firm'
p2811
I2849
sS'alto'
p2812
I2850
sS'vans'
p2813
I2851
sS'ram'
p2814
I2852
sS'champion'
p2815
I2853
sS'firk'
p2816
I2854
sS'packs'
p2817
I2855
sS'fire'
p2818
I2856
sS'pencils'
p2819
I2857
sS'wheeler'
p2820
I2858
sS'gas'
p2821
I2859
sS'precision'
p2822
I2860
sS'krazzybuy'
p2823
I2861
sS'silencer'
p2824
I2862
sS'racer'
p2825
I2863
sS'sleeves'
p2826
I2864
sS'folklore'
p2827
I2865
sS'funk'
p2828
I2867
sS'plants'
p2829
I2868
sS'ridhima'
p2830
I2869
sS'loom'
p2831
I2870
sS'fur'
p2832
I2871
sS'look'
p2833
I2872
sS'abof'
p2834
I2873
sS'talking'
p2835
I2435
sS'solid'
p2836
I2875
sS'balloons'
p2837
I4031
sS'straight'
p2838
I2877
sS'tip'
p2839
I2878
sS'rope'
p2840
I2879
sS'dohar'
p2841
I93
sS'bikini'
p2842
I2881
sS'kick'
p2843
I2882
sS'pearls'
p2844
I2883
sS'fun'
p2845
I2884
sS'rangsthali'
p2846
I2885
sS'biking'
p2847
I2886
sS'guide'
p2848
I2887
sS'deemark'
p2849
I2354
sS'engineers'
p2850
I142
sS'styles'
p2851
I2522
sS'psk'
p2852
I1929
sS'metre'
p2853
I3326
sS'calculator'
p2854
I2893
sS'kurtis'
p2855
I2894
sS'embroidered'
p2856
I194
sS'rin'
p2857
I2896
sS'buckaroo'
p2858
I2897
sS'rim'
p2859
I207
sS'rid'
p2860
I2899
sS'vox'
p2861
I2900
sS'monroe'
p2862
I2901
sS'panasonic'
p2863
I240
sS'decor'
p2864
I2903
sS'pyjamas'
p2865
I2904
sS'shirt'
p2866
I2905
sS'shoba'
p2867
I2906
sS'trial'
p2868
I2907
sS'rosy'
p2869
I2848
sS'textile'
p2870
I2909
sS'salona'
p2871
I2910
sS'bangles'
p2872
I2911
sS'grand'
p2873
I2912
sS'composition'
p2874
I2915
sS'lid'
p2875
I2917
sS'delhi'
p2876
I1849
sS'knitting'
p2877
I2919
sS'tupperware'
p2878
I2920
sS'cartridge'
p2879
I2921
sS'yuva'
p2880
I2922
sS'cloud'
p2881
I3349
sS'gritstones'
p2882
I382
sS'infuser'
p2883
I2924
sS'unstitched'
p2884
I2642
sS'user'
p2885
I408
sS'remote'
p2886
I4180
sS'zoha'
p2887
I2927
sS'plugs'
p2888
I331
sS'dart'
p2889
I1936
sS'probiker'
p2890
I2930
sS'alphaboostpro'
p2891
I2931
sS'gsq'
p2892
I2932
sS'lower'
p2893
I2933
sS'nylon'
p2894
I2934
sS'nillkin'
p2895
I2935
sS'flared'
p2896
I2936
sS'dooda'
p2897
I2937
sS'globus'
p2898
I2938
sS'try'
p2899
I3258
sS'dancing'
p2900
I2939
sS'rodid'
p2901
I2940
sS'honor'
p2902
I2941
sS'solids'
p2903
I988
sS'edge'
p2904
I329
sS'massage'
p2905
I1639
sS'grip'
p2906
I2890
sS'wedges'
p2907
I2946
sS'chemistry'
p2908
I2947
sS'gsm'
p2909
I2948
sS'jbj'
p2910
I2949
sS'desi'
p2911
I4042
sS'versiliana'
p2912
I4043
sS'desk'
p2913
I4044
sS'morsel'
p2914
I2953
sS'competitive'
p2915
I2954
sS'bodysuits'
p2916
I1694
sS'shape'
p2917
I2956
sS'questions'
p2918
I602
sS'roasted'
p2919
I2958
sS'jbl'
p2920
I2959
sS'hotpot'
p2921
I2960
sS'cut'
p2922
I1458
sS'gamepad'
p2923
I2718
sS'tablet'
p2924
I653
sS'cup'
p2925
I2964
sS'jaanvi'
p2926
I2965
sS'dhan'
p2927
I674
sS'maxi'
p2928
I687
sS'amway'
p2929
I2968
sS'koutons'
p2930
I3674
sS'snap'
p2931
I2969
sS'casotec'
p2932
I826
sS'bridal'
p2933
I715
sS'ruled'
p2934
I2972
sS'canin'
p2935
I1224
sS'fucasso'
p2936
I954
sS'bin'
p2937
I2975
sS'bio'
p2938
I735
sS'marco'
p2939
I219
sS'musclepharm'
p2940
I1693
sS'emergency'
p2941
I2979
sS'big'
p2942
I2980
sS'couple'
p2943
I2981
sS'bib'
p2944
I2982
sS'game'
p2945
I2983
sS'flamingo'
p2946
I4051
sS'hilex'
p2947
I795
sS'jumpsuit'
p2948
I2986
sS'monika'
p2949
I806
sS'bit'
p2950
I2988
sS'wings'
p2951
I2989
sS'sandals'
p2952
I2929
sS'formal'
p2953
I2990
sS'wrogn'
p2954
I2991
sS'ponds'
p2955
I2992
sS'vests'
p2956
I2993
sS'stylist'
p2957
I2994
sS'semi'
p2958
I2995
sS'shaped'
p2959
I2996
sS'proline'
p2960
I2997
sS'pillar'
p2961
I2998
sS'hornbull'
p2962
I2999
sS'glove'
p2963
I3000
sS'rider'
p2964
I3001
sS'shaper'
p2965
I3002
sS'arthur'
p2966
I3003
sS'donna'
p2967
I3004
sS'popular'
p2968
I3005
sS'stylish'
p2969
I3006
sS'bamboo'
p2970
I3007
sS'essential'
p2971
I931
sS'shayona'
p2972
I3009
sS'faber'
p2973
I2362
sS'mauve'
p2974
I2397
sS'creation'
p2975
I3012
sS'instruments'
p2976
I3013
sS'pierre'
p2977
I3014
sS'phone'
p2978
I2447
sS'alanti'
p2979
I3016
sS'lips'
p2980
I3017
sS'mighty'
p2981
I3018
sS'complete'
p2982
I3676
sS'mirror'
p2983
I3019
sS'trendy'
p2984
I3020
sS'candle'
p2985
I3021
sS'trendz'
p2986
I3022
sS'multicolored'
p2987
I3546
sS'brent'
p2988
I3023
sS'uniqchoice'
p2989
I3024
sS'ganesh'
p2990
I3025
sS'scale'
p2991
I3026
sS'heinz'
p2992
I3027
sS'jewelry'
p2993
I3028
sS'prcombo'
p2994
I1062
sS'pet'
p2995
I3031
sS'tools'
p2996
I3348
sS'rucksack'
p2997
I3033
sS'per'
p2998
I3035
sS'technotech'
p2999
I3036
sS'customize'
p3000
I3037
sS'pen'
p3001
I3038
sS'sneakers'
p3002
I3039
sS'retro'
p3003
I1107
sS'slash'
p3004
I3041
sS'peg'
p3005
I3042
sS'temple'
p3006
I3043
sS'eyeglass'
p3007
I3044
sS'concealer'
p3008
I3045
sS'run'
p3009
I3046
sS'mannequin'
p3010
I3903
sS'booklet'
p3011
I3048
sS'processing'
p3012
I3049
sS'rug'
p3013
I3050
sS'oek'
p3014
I3051
sS'step'
p3015
I3052
sS'boxes'
p3016
I1064
sS'loreal'
p3017
I3054
sS'oem'
p3018
I1220
sS'feb'
p3019
I3354
sS'raspberry'
p3020
I3057
sS'intense'
p3021
I3058
sS'sporty'
p3022
I2179
sS'shine'
p3023
I3060
sS'faith'
p3024
I3061
sS'goods'
p3025
I3062
sS'most'
p3026
I2668
sS'soft'
p3027
I4064
sS'ranjit'
p3028
I3066
sS'tie'
p3029
I3067
sS'bgr'
p3030
I3068
sS'breasted'
p3031
I3070
sS'womens'
p3032
I3071
sS'block'
p3033
I3072
sS'pollution'
p3034
I3073
sS'repair'
p3035
I3074
sS'mechanics'
p3036
I4202
sS'nsk'
p3037
I1359
sS'zikrak'
p3038
I3076
sS'biocare'
p3039
I3077
sS'stitched'
p3040
I3078
sS'disposable'
p3041
I3080
sS'carlton'
p3042
I3081
sS'corsair'
p3043
I3082
sS'alpha'
p3044
I2673
sS'frames'
p3045
I1646
sS'diwan'
p3046
I3087
sS'coin'
p3047
I1457
sS'computer'
p3048
I3805
sS'jewellery'
p3049
I3091
sS'mythic'
p3050
I3092
sS'baltra'
p3051
I3093
sS'brut'
p3052
I3094
sS'question'
p3053
I3095
sS'turbomix'
p3054
I1494
sS'bcaa'
p3055
I1499
sS'handbook'
p3056
I3098
sS'reduction'
p3057
I4158
sS'heritage'
p3058
I1525
sS'harem'
p3059
I3100
sS'checkered'
p3060
I1784
sS'poster'
p3061
I3102
sS'vaamsi'
p3062
I1420
sS'lino'
p3063
I3105
sS'cloth'
p3064
I1614
sS'mcp'
p3065
I3107
sS'shapewear'
p3066
I3108
sS'link'
p3067
I3109
sS'cbse'
p3068
I1637
sS'sdl'
p3069
I3111
sS'line'
p3070
I3112
sS'active'
p3071
I3113
sS'dull'
p3072
I3114
sS'penguin'
p3073
I3115
sS'groovy'
p3074
I3116
sS'hush'
p3075
I4072
sS'originals'
p3076
I3118
sS'skull'
p3077
I3119
sS'circuits'
p3078
I3120
sS'apricot'
p3079
I3121
sS'knitted'
p3080
I2247
sS'detachable'
p3081
I3122
sS'daylight'
p3082
I4073
sS'peppermint'
p3083
I2259
sS'clips'
p3084
I1720
sS'mobile'
p3085
I2680
sS'jumbo'
p3086
I3128
sS'warmer'
p3087
I4075
sS'groove'
p3088
I3130
sS'georgette'
p3089
I3131
sS'faas'
p3090
I3132
sS'bell'
p3091
I2825
sS'inch'
p3092
I3135
sS'curren'
p3093
I1843
sS'metal'
p3094
I3137
sS'professionnel'
p3095
I3648
sS'estilo'
p3096
I3138
sS'wonderkart'
p3097
I3139
sS'mojaris'
p3098
I3140
sS'engineering'
p3099
I3141
sS'nautical'
p3100
I3142
sS'inalsa'
p3101
I3143
sS'curl'
p3102
I3144
sS'cotton'
p3103
I3145
sS'sandalwood'
p3104
I3146
sS'rainbow'
p3105
I3147
sS'lemon'
p3106
I3148
sS'nag'
p3107
I3149
sS'peach'
p3108
I3150
sS'hanes'
p3109
I3151
sS'tweens'
p3110
I1895
sS'water'
p3111
I3153
sS'sheetal'
p3112
I3154
sS'saffron'
p3113
I3155
sS'gry'
p3114
I3156
sS'nav'
p3115
I1924
sS'pour'
p3116
I3391
sS'dungarees'
p3117
I3158
sS'grn'
p3118
I3159
sS'kamal'
p3119
I1530
sS'xtag'
p3120
I3161
sS'mock'
p3121
I3162
sS'revision'
p3122
I3163
sS'kalki'
p3123
I2624
sS'shrug'
p3124
I3164
sS'sutra'
p3125
I3165
sS'elements'
p3126
I1975
sS'scrub'
p3127
I3167
sS'mustard'
p3128
I3168
sS'smileu'
p3129
I3169
sS'favourite'
p3130
I1101
sS'sdxc'
p3131
I3171
sS'smiley'
p3132
I1996
sS'casetech'
p3133
I3173
sS'xiaomi'
p3134
I2005
sS'lens'
p3135
I2017
sS'insect'
p3136
I2026
sS'ess'
p3137
I4082
sS'aleron'
p3138
I3180
sS'autofurnish'
p3139
I3
sS'earphones'
p3140
I3182
sS'mood'
p3141
I3183
sS'polyamide'
p3142
I3184
sS'notch'
p3143
I3185
sS'clickroo'
p3144
I3186
sS'cooker'
p3145
I3187
sS'physics'
p3146
I3188
sS'age'
p3147
I3189
sS'svb'
p3148
I3190
sS'kerro'
p3149
I2025
sS'tandoor'
p3150
I3192
sS'<PAD>'
p3151
I4262
sS'gambe'
p3152
I3376
sS'dot'
p3153
I3194
sS'fresh'
p3154
I3195
sS'tidel'
p3155
I4245
sS'pret'
p3156
I3196
sS'wipro'
p3157
I3197
sS'cleanser'
p3158
I1988
sS'partial'
p3159
I3199
sS'selfie'
p3160
I3200
sS'beebay'
p3161
I3201
sS'homesmart'
p3162
I3202
sS'hooks'
p3163
I2199
sS'amplifier'
p3164
I3204
sS'resistance'
p3165
I1802
sS'cobalt'
p3166
I3206
sS'priya'
p3167
I3207
sS'edp'
p3168
I3208
sS'renown'
p3169
I3209
sS'edt'
p3170
I3210
sS'gossip'
p3171
I3211
sS'compact'
p3172
I2269
sS'coolpix'
p3173
I2272
sS'gold'
p3174
I2698
sS'magique'
p3175
I3215
sS'pioneer'
p3176
I3216
sS'sordi'
p3177
I2602
sS'roshan'
p3178
I2295
sS'varsha'
p3179
I2303
sS'chess'
p3180
I2974
sS'suits'
p3181
I3219
sS'outside'
p3182
I3232
sS'anshul'
p3183
I3220
sS'donic'
p3184
I3221
sS'cradle'
p3185
I3222
sS'elligator'
p3186
I3223
sS'blaze'
p3187
I2821
sS'masculine'
p3188
I3225
sS'kriaa'
p3189
I3226
sS'celio'
p3190
I2342
sS'friendly'
p3191
I3228
sS'sovam'
p3192
I3229
sS'family'
p3193
I3230
sS'garden'
p3194
I3231
sS'ladle'
p3195
I1645
sS'deepika'
p3196
I3233
sS'vipul'
p3197
I3234
sS'felicita'
p3198
I3235
sS'kitty'
p3199
I3236
sS'engineered'
p3200
I1203
sS'wave'
p3201
I3238
sS'assam'
p3202
I3239
sS'spoon'
p3203
I2410
sS'kolorfish'
p3204
I3241
sS'mixing'
p3205
I3242
sS'impex'
p3206
I3243
sS'drinking'
p3207
I3244
sS'tutu'
p3208
I3245
sS'minerals'
p3209
I3246
sS'tri'
p3210
I3247
sS'polyester'
p3211
I3248
sS'magic'
p3212
I3249
sS'evo'
p3213
I3250
sS'knight'
p3214
I423
sS'notes'
p3215
I2473
sS'tokyo'
p3216
I1267
sS'magik'
p3217
I3254
sS'dolgix'
p3218
I383
sS'nourishing'
p3219
I3256
sS'totta'
p3220
I4096
sS'deals'
p3221
I2301
sS'kanticoy'
p3222
I3259
sS'race'
p3223
I3260
sS'porter'
p3224
I2866
sS'kit'
p3225
I3262
sS'iba'
p3226
I3263
sS'olay'
p3227
I3264
sS'pepe'
p3228
I2424
sS'rack'
p3229
I3266
sS'solutions'
p3230
I3267
sS'cfl'
p3231
I3268
sS'tunics'
p3232
I1925
sS'senorita'
p3233
I3270
sS'jalwa'
p3234
I3271
sS'frost'
p3235
I3272
sS'crop'
p3236
I2594
sS'pavechas'
p3237
I2598
sS'hose'
p3238
I4099
sS'video'
p3239
I3277
sS'booth'
p3240
I3278
sS'surface'
p3241
I3935
sS'earth'
p3242
I3279
sS'ssnl'
p3243
I2628
sS'wheat'
p3244
I3281
sS'stepper'
p3245
I3282
sS'carlo'
p3246
I3283
sS'analogue'
p3247
I3134
sS'iball'
p3248
I2657
sS'gainers'
p3249
I3286
sS'junior'
p3250
I3287
sS'shoetopia'
p3251
I1974
sS'multimedia'
p3252
I3289
sS'espresso'
p3253
I3290
sS'vampire'
p3254
I3291
sS'practices'
p3255
I3292
sS'cell'
p3256
I3293
sS'huawei'
p3257
I3294
sS'indian'
p3258
I2724
sS'twins'
p3259
I3296
sS'welspun'
p3260
I173
sS'collins'
p3261
I3298
sS'kwld'
p3262
I2057
sS'exercise'
p3263
I3300
sS'wowcreation'
p3264
I3301
sS'body'
p3265
I2756
sS'dce'
p3266
I4103
sS'healthiq'
p3267
I2271
sS'flo'
p3268
I1918
sS'hdmi'
p3269
I2779
sS'leg'
p3270
I3306
sS'rrtcwl'
p3271
I3307
sS'goodlook'
p3272
I2792
sS'scrapper'
p3273
I3309
sS'punch'
p3274
I3310
sS'classico'
p3275
I3063
sS'safex'
p3276
I3312
sS'packing'
p3277
I3313
sS'glamr'
p3278
I2775
sS'euro'
p3279
I3315
sS'meet'
p3280
I3395
sS'retina'
p3281
I4208
sS'sexy'
p3282
I3316
sS'garmor'
p3283
I3317
sS'expiry'
p3284
I4106
sS'eyeconic'
p3285
I3318
sS'extreme'
p3286
I3319
sS'boss'
p3287
I3841
sS'vinegar'
p3288
I3321
sS'great'
p3289
I3322
sS'engage'
p3290
I3323
sS'metro'
p3291
I1450
sS'shades'
p3292
I2892
sS'calvin'
p3293
I3327
sS'nulife'
p3294
I3347
sS'autokraftz'
p3295
I3160
sS'products'
p3296
I3328
sS'assistant'
p3297
I1667
sS'derby'
p3298
I3330
sS'spices'
p3299
I995
sS'makes'
p3300
I3333
sS'scooter'
p3301
I2720
sS'pajama'
p3302
I3335
sS'control'
p3303
I3399
sS'examinations'
p3304
I3336
sS'sat'
p3305
I1569
sS'apple'
p3306
I3337
sS'spy'
p3307
I3338
sS'win'
p3308
I3339
sS'shuberry'
p3309
I3341
sS'unflavoured'
p3310
I4255
sS'linen'
p3311
I3681
sS'boxy'
p3312
I3342
sS'limo'
p3313
I3343
sS'kurti'
p3314
I3344
sS'oval'
p3315
I3345
sS'sarees'
p3316
I3346
sS'sugar'
p3317
I1033
sS'apf'
p3318
I3032
sS'kurta'
p3319
I1389
sS'lime'
p3320
I3350
sS'usf'
p3321
I3351
sS'use'
p3322
I3352
sS'nexx'
p3323
I3353
sS'from'
p3324
I3056
sS'usb'
p3325
I3059
sS'zip'
p3326
I3356
sS'farenheit'
p3327
I3357
sS'doodle'
p3328
I3358
sS'hudson'
p3329
I3075
sS'flat'
p3330
I3360
sS'hydra'
p3331
I3361
sS'capri'
p3332
I3362
sS'camera'
p3333
I3363
sS'examination'
p3334
I3364
sS'fliptop'
p3335
I3365
sS'vehicle'
p3336
I3366
sS'toy'
p3337
I3367
sS'nexa'
p3338
I3368
sS'panel'
p3339
I4112
sS'dreams'
p3340
I848
sS'chip'
p3341
I3370
sS'hydro'
p3342
I3371
sS'assortment'
p3343
I2928
sS'pencil'
p3344
I3136
sS'sritika'
p3345
I3373
sS'cambogia'
p3346
I608
sS'tennis'
p3347
I963
sS'trail'
p3348
I3375
sS'cookware'
p3349
I3193
sS'rabbit'
p3350
I3377
sS'penis'
p3351
I1980
sS'iii'
p3352
I3379
sS'iik'
p3353
I1547
sS'women'
p3354
I3381
sS'customer'
p3355
I3382
sS'ghagra'
p3356
I1287
sS'balls'
p3357
I3384
sS'duster'
p3358
I3386
sS'this'
p3359
I3387
sS'ride'
p3360
I3388
sS'unistar'
p3361
I3390
sS'schiffli'
p3362
I1171
sS'lumber'
p3363
I3392
sS'badam'
p3364
I999
sS'rooney'
p3365
I2256
sS'spl'
p3366
I1290
sS'vheelocityin'
p3367
I3396
sS'sainath'
p3368
I3397
sS'proof'
p3369
I3398
sS'brightening'
p3370
I1668
sS'hip'
p3371
I3400
sS'slip'
p3372
I3414
sS'links'
p3373
I3402
sS'almirah'
p3374
I3403
sS'wonker'
p3375
I934
sS'lock'
p3376
I3405
sS'slim'
p3377
I3407
sS'nivea'
p3378
I3408
sS'warmers'
p3379
I3409
sS'pieces'
p3380
I3410
sS'high'
p3381
I3411
sS'carrot'
p3382
I948
sS'acm'
p3383
I3079
sS'tab'
p3384
I3401
sS'chic'
p3385
I3415
sS'bones'
p3386
I3416
sS'triangle'
p3387
I3417
sS'tan'
p3388
I3418
sS'locking'
p3389
I3419
sS'skirt'
p3390
I3420
sS'autobiography'
p3391
I3421
sS'educational'
p3392
I3422
sS'united'
p3393
I1204
sS'colorful'
p3394
I3424
sS'defective'
p3395
I3425
sS'fastrack'
p3396
I3426
sS'vibe'
p3397
I3427
sS'clothing'
p3398
I3428
sS'purpose'
p3399
I2926
sS'serum'
p3400
I2913
sS'traders'
p3401
I3430
sS'sia'
p3402
I1990
sS'seeds'
p3403
I4126
sS'goodwyn'
p3404
I3433
sS'craze'
p3405
I3434
sS'animal'
p3406
I3435
sS'bandana'
p3407
I3436
sS'pantaloons'
p3408
I3437
sS'sim'
p3409
I3438
sS'embellished'
p3410
I3439
sS'pub'
p3411
I2518
sS'blocks'
p3412
I3441
sS'womenus'
p3413
I3442
sS'halter'
p3414
I3443
sS'sir'
p3415
I3444
sS'watch'
p3416
I3446
sS'legging'
p3417
I3447
sS'collection'
p3418
I3448
sS'fluid'
p3419
I1652
sS'notebook'
p3420
I3451
sS'wrist'
p3421
I3452
sS'ethnic'
p3422
I3453
sS'faucets'
p3423
I3445
sS'ties'
p3424
I3455
sS'anabolic'
p3425
I3456
sS'supersoft'
p3426
I3458
sS'revo'
p3427
I3459
sS'light'
p3428
I3460
sS'cosco'
p3429
I3461
sS'guru'
p3430
I3462
sS'robot'
p3431
I2192
sS'sanwara'
p3432
I3464
sS'scoop'
p3433
I3467
sS'chief'
p3434
I3468
sS'lose'
p3435
I4061
sS'spain'
p3436
I3907
sS'healthcare'
p3437
I1559
sS'alloy'
p3438
I3470
sS'software'
p3439
I4131
sS'martini'
p3440
I3472
sS'aarushi'
p3441
I1710
sS'ubvin'
p3442
I3474
sS'amber'
p3443
I3475
sS'unbreakable'
p3444
I3476
sS'ecostay'
p3445
I3477
sS'unnati'
p3446
I3772
sS'meter'
p3447
I3479
sS'spatula'
p3448
I3480
sS'motorcycle'
p3449
I3481
sS'austrian'
p3450
I3482
sS'libas'
p3451
I3483
sS'castagnino'
p3452
I3484
sS'galaxy'
p3453
I3485
sS'industries'
p3454
I883
sS'superior'
p3455
I1631
sS'nightwear'
p3456
I3488
sS'cotts'
p3457
I3489
sS'webed'
p3458
I3490
sS'tsg'
p3459
I3491
sS'lamp'
p3460
I3492
sS'drs'
p3461
I3493
sS'fabrics'
p3462
I244
sS'decal'
p3463
I3495
sS'marsh'
p3464
I3496
sS'tsx'
p3465
I3497
sS'communication'
p3466
I2042
sS'shopfab'
p3467
I3499
sS'nutrigain'
p3468
I3500
sS'byc'
p3469
I659
sS'forest'
p3470
I3502
sS'flex'
p3471
I3503
sS'designs'
p3472
I3504
sS'indiashopers'
p3473
I3505
sS'shwetna'
p3474
I3906
sS'skater'
p3475
I3506
sS'goldnera'
p3476
I3507
sS'auto'
p3477
I3508
sS'material'
p3478
I945
sS'softel'
p3479
I3205
sS'bat'
p3480
I585
sS'toshiba'
p3481
I3512
sS'khantil'
p3482
I3513
sS'provogue'
p3483
I3514
sS'kiss'
p3484
I3515
sS'front'
p3485
I3516
sS'bar'
p3486
I3517
sS'handy'
p3487
I1835
sS'bas'
p3488
I3519
sS'mixer'
p3489
I3413
sS'wrangler'
p3490
I3520
sS'crt'
p3491
I2813
sS'toes'
p3492
I3064
sS'env'
p3493
I3523
sS'concave'
p3494
I3525
sS'godrej'
p3495
I3526
sS'moda'
p3496
I3527
sS'theory'
p3497
I2031
sS'lingerie'
p3498
I3529
sS'mode'
p3499
I3531
sS'surat'
p3500
I3532
sS'modi'
p3501
I3533
sS'ambrane'
p3502
I3534
sS'tray'
p3503
I3535
sS'tracer'
p3504
I3536
sS'glasses'
p3505
I3537
sS'rpindia'
p3506
I3538
sS'durga'
p3507
I3440
sS'treecase'
p3508
I3540
sS'jbn'
p3509
I3541
sS'lilac'
p3510
I3542
sS'globe'
p3511
I3543
sS'magnifier'
p3512
I3544
sS'pantry'
p3513
I3545
sS'bluetooth'
p3514
I1978
sS'shivanifashion'
p3515
I3547
sS'sachets'
p3516
I3548
sS'vastra'
p3517
I3549
sS'babeezworld'
p3518
I3550
sS'measure'
p3519
I3551
sS'sdudz'
p3520
I3552
sS'sweatshirt'
p3521
I3553
sS'bay'
p3522
I3554
sS'special'
p3523
I3555
sS'out'
p3524
I2472
sS'rex'
p3525
I774
sS'deodorants'
p3526
I3558
sS'matrix'
p3527
I3559
sS'frontier'
p3528
I3560
sS'armor'
p3529
I3561
sS'plum'
p3530
I3562
sS'mcafee'
p3531
I3849
sS'parisha'
p3532
I3563
sS'karbonn'
p3533
I3564
sS'sareeka'
p3534
I3178
sS'messenger'
p3535
I3566
sS'stud'
p3536
I3567
sS'funky'
p3537
I3568
sS'electronics'
p3538
I3569
sS'trunks'
p3539
I4144
sS'induction'
p3540
I3457
sS'integrated'
p3541
I3571
sS'red'
p3542
I65
sS'hut'
p3543
I1931
sS'eco'
p3544
I3574
sS'beaded'
p3545
I3423
sS'grabado'
p3546
I2754
sS'steel'
p3547
I3640
sS'hyundai'
p3548
I3575
sS'duffle'
p3549
I3576
sS'sumeet'
p3550
I1087
sS'tiger'
p3551
I3578
sS'york'
p3552
I379
sS'tempt'
p3553
I3580
sS'marathon'
p3554
I1789
sS'dealbindaas'
p3555
I3449
sS'princess'
p3556
I163
sS'quo'
p3557
I3583
sS'shui'
p3558
I3584
sS'ltr'
p3559
I180
sS'organic'
p3560
I192
sS'automatic'
p3561
I248
sS'timer'
p3562
I3589
sS'keep'
p3563
I224
sS'stride'
p3564
I229
sS'shree'
p3565
I1823
sS'ltd'
p3566
I1342
sS'lancer'
p3567
I261
sS'austin'
p3568
I3595
sS'anita'
p3569
I887
sS'wildcraft'
p3570
I3597
sS'chocolates'
p3571
I3359
sS'ballerinas'
p3572
I3598
sS'dragon'
p3573
I3807
sS'brandvilla'
p3574
I3600
sS'bars'
p3575
I3601
sS'heavy'
p3576
I2475
sS'tier'
p3577
I3454
sS'ganesha'
p3578
I2759
sS'quality'
p3579
I3605
sS'sockets'
p3580
I3606
sS'disha'
p3581
I2950
sS'long'
p3582
I3096
sS'rigo'
p3583
I394
sS'festival'
p3584
I3611
sS'data'
p3585
I3612
sS'durable'
p3586
I3613
sS'citrate'
p3587
I4257
sS'abhishti'
p3588
I413
sS'system'
p3589
I3615
sS'bitdefender'
p3590
I427
sS'without'
p3591
I3617
sS'slide'
p3592
I4085
sS'ankle'
p3593
I3618
sS'stsl'
p3594
I4162
sS'lacing'
p3595
I3619
sS'tracksuits'
p3596
I3620
sS'bosch'
p3597
I3621
sS'kiran'
p3598
I3661
sS'beard'
p3599
I3622
sS'back'
p3600
I3623
sS'shell'
p3601
I3624
sS'dumbells'
p3602
I2403
sS'gear'
p3603
I491
sS'shorts'
p3604
I3627
sS'rsd'
p3605
I496
sS'shelf'
p3606
I501
sS'dailydeals'
p3607
I3630
sS'fidato'
p3608
I3929
sS'dupatta'
p3609
I3631
sS'ogm'
p3610
I3632
sS'blazers'
p3611
I3633
sS'crepe'
p3612
I1904
sS'elite'
p3613
I3637
sS'bulb'
p3614
I3638
sS'neck'
p3615
I3639
sS'ipad'
p3616
I2714
sS'lightening'
p3617
I3641
sS'microsdxc'
p3618
I3642
sS'izod'
p3619
I580
sS'aimil'
p3620
I2970
sS'palm'
p3621
I4005
sS'wet'
p3622
I3645
sS'mbps'
p3623
I3646
sS'shampoo'
p3624
I3647
sS'lion'
p3625
I2765
sS'bed'
p3626
I3649
sS'tommy'
p3627
I611
sS'banarasi'
p3628
I3652
sS'beetel'
p3629
I3654
sS'triveni'
p3630
I3656
sS'fengshui'
p3631
I3657
sS'bodice'
p3632
I3658
sS'patiala'
p3633
I3659
sS'straps'
p3634
I3660
sS'blid'
p3635
I2790
sS'clip'
p3636
I3662
sS'yofashions'
p3637
I3663
sS'deodorant'
p3638
I3664
sS'cricket'
p3639
I4168
sS'asics'
p3640
I3666
sS'comfortable'
p3641
I713
sS'spicy'
p3642
I3668
sS'ultrasonic'
p3643
I3669
sS'have'
p3644
I3670
sS'close'
p3645
I3671
sS'hippie'
p3646
I3355
sS'taba'
p3647
I3673
sS'waken'
p3648
I747
sS'goodies'
p3649
I3325
sS'handsfree'
p3650
I2070
sS'rossmax'
p3651
I3677
sS'screw'
p3652
I3678
sS'jackly'
p3653
I3679
sS'angle'
p3654
I3680
sS'min'
p3655
I3261
sS'studying'
p3656
I3682
sS'mic'
p3657
I3683
sS'storage'
p3658
I4002
sS'mid'
p3659
I802
sS'solly'
p3660
I804
sS'contact'
p3661
I787
sS'mix'
p3662
I3687
sS'parko'
p3663
I3688
sS'analog'
p3664
I2773
sS'stylox'
p3665
I3690
sS'sdhc'
p3666
I847
sS'lily'
p3667
I3692
sS'soap'
p3668
I3693
sS'blades'
p3669
I3694
sS'areon'
p3670
I3695
sS'led'
p3671
I3303
sS'vajazzle'
p3672
I3331
sS'combat'
p3673
I3698
sS'centre'
p3674
I1772
sS'tshirts'
p3675
I899
sS'hazel'
p3676
I1167
sS'princeware'
p3677
I3702
sS'hdtss'
p3678
I3703
sS'wht'
p3679
I925
sS'necklace'
p3680
I3705
sS'hiphop'
p3681
I3706
sS'pond'
p3682
I3707
sS'logitech'
p3683
I3708
sS'handbag'
p3684
I3709
sS'slotted'
p3685
I3710
sS'awe'
p3686
I3711
sS'rege'
p3687
I3712
sS'anklets'
p3688
I2973
sS'afresh'
p3689
I3714
sS'dipika'
p3690
I652
sS'gdivine'
p3691
I3716
sS'quilted'
p3692
I3717
sS'peplum'
p3693
I3718
sS'milano'
p3694
I3273
sS'face'
p3695
I3720
sS'pipe'
p3696
I3721
sS'justkids'
p3697
I3722
sS'elife'
p3698
I3723
sS'pipa'
p3699
I3724
sS'linea'
p3700
I3473
sS'cutlery'
p3701
I3463
sS'stiched'
p3702
I3726
sS'occasion'
p3703
I3727
sS'indo'
p3704
I3728
sS'painting'
p3705
I3729
sS'dbh'
p3706
I3730
sS'parker'
p3707
I3731
sS'hoodies'
p3708
I3732
sS'exclusive'
p3709
I3653
sS'skyways'
p3710
I3734
sS'stove'
p3711
I3735
sS'nikkor'
p3712
I1112
sS'aquafresh'
p3713
I3737
sS'nights'
p3714
I2925
sS'mmojah'
p3715
I1126
sS'naturals'
p3716
I3739
sS'bikes'
p3717
I3740
sS'seaweed'
p3718
I3741
sS'garg'
p3719
I3498
sS'dried'
p3720
I3742
sS'supporter'
p3721
I3743
sS'kuris'
p3722
I1176
sS'kirpa'
p3723
I3745
sS'dandruff'
p3724
I1190
sS'knowledge'
p3725
I1195
sS'tire'
p3726
I3748
sS'jay'
p3727
I3749
sS'konnect'
p3728
I3750
sS'jar'
p3729
I3751
sS'adler'
p3730
I3752
sS'buttons'
p3731
I1235
sS'combi'
p3732
I1238
sS'paisa'
p3733
I2788
sS'tape'
p3734
I3756
sS'combo'
p3735
I1255
sS'fuel'
p3736
I3758
sS'riding'
p3737
I3759
sS'piano'
p3738
I1261
sS'fcs'
p3739
I3761
sS'spun'
p3740
I3762
sS'whitening'
p3741
I3763
sS'cherymoya'
p3742
I3764
sS'cube'
p3743
I2007
sS'capsules'
p3744
I3320
sS'nutronic'
p3745
I3767
sS'toned'
p3746
I3768
sS'beat'
p3747
I3769
sS'stripes'
p3748
I358
sS'bear'
p3749
I3771
sS'davidoff'
p3750
I1341
sS'eveready'
p3751
I2456
sS'raga'
p3752
I3775
sS'ananda'
p3753
I3777
sS'bead'
p3754
I1153
sS'striped'
p3755
I3779
sS'shaping'
p3756
I3780
sS'gray'
p3757
I3781
sS'evolution'
p3758
I3782
sS'champagne'
p3759
I2791
sS'toed'
p3760
I3784
sS'footlodge'
p3761
I2119
sS'belts'
p3762
I3785
sS'rozdeal'
p3763
I3786
sS'panther'
p3764
I3788
sS'calling'
p3765
I3789
sS'airmax'
p3766
I3790
sS'topaz'
p3767
I3791
sS'gram'
p3768
I1449
sS'wish'
p3769
I4189
sS'diwaah'
p3770
I4033
sS'typhoo'
p3771
I1462
sS'bluedio'
p3772
I3795
sS'liner'
p3773
I3667
sS'view'
p3774
I221
sS'toe'
p3775
I2619
sS'lives'
p3776
I4260
sS'frame'
p3777
I3798
sS'fusion'
p3778
I3799
sS'terrain'
p3779
I3800
sS'module'
p3780
I3801
sS'qty'
p3781
I3802
sS'llp'
p3782
I2203
sS'edition'
p3783
I3803
sS'exerciser'
p3784
I3083
sS'hipster'
p3785
I3227
sS'powder'
p3786
I3806
sS'violet'
p3787
I1882
sS'multicolour'
p3788
I3808
sS'luminous'
p3789
I855
sS'woodland'
p3790
I3810
sS'uniscarf'
p3791
I3811
sS'wears'
p3792
I3812
sS'soothing'
p3793
I3602
sS'washable'
p3794
I3813
sS'wire'
p3795
I3814
sS'nails'
p3796
I3815
sS'gliders'
p3797
I3816
sS'closet'
p3798
I3817
sS'softgels'
p3799
I3818
sS'lux'
p3800
I3819
sS'pattern'
p3801
I3820
sS'beading'
p3802
I3821
sS'granite'
p3803
I4231
sS'maruti'
p3804
I3822
sS'bmw'
p3805
I3431
sS'silicone'
p3806
I3823
sS'state'
p3807
I3824
sS'bruno'
p3808
I1662
sS'skdc'
p3809
I2516
sS'scarf'
p3810
I3596
sS'levis'
p3811
I3776
sS'refreshing'
p3812
I3829
sS'shawl'
p3813
I1524
sS'glen'
p3814
I2635
sS'weighing'
p3815
I927
sS'exam'
p3816
I3833
sS'foldable'
p3817
I3834
sS'joy'
p3818
I3835
sS'railway'
p3819
I3836
sS'rigoglioso'
p3820
I3126
sS'key'
p3821
I3838
sS'underwear'
p3822
I3839
sS'avon'
p3823
I1780
sS'mate'
p3824
I3565
sS'swift'
p3825
I3842
sS'hobo'
p3826
I3466
sS'monitor'
p3827
I3844
sS'piece'
p3828
I4199
sS'instant'
p3829
I3846
sS'buster'
p3830
I1813
sS'renault'
p3831
I3530
sS'jhalak'
p3832
I1822
sS'hitz'
p3833
I3850
sS'aqua'
p3834
I3851
sS'etc'
p3835
I3852
sS'harvard'
p3836
I3853
sS'nebulizer'
p3837
I3854
sS'nitro'
p3838
I3626
sS'puff'
p3839
I3856
sS'homme'
p3840
I4233
sS'jersey'
p3841
I3857
sS'chest'
p3842
I2966
sS'skating'
p3843
I3859
sS'spandex'
p3844
I3860
sS'wall'
p3845
I3861
sS'denim'
p3846
I3862
sS'irish'
p3847
I4204
sS'ajile'
p3848
I3864
sS'walk'
p3849
I1942
sS'rpb'
p3850
I3866
sS'ucb'
p3851
I3867
sS'brinley'
p3852
I3868
sS'clovia'
p3853
I3869
sS'table'
p3854
I2282
sS'mafia'
p3855
I1983
sS'rpm'
p3856
I3872
sS'klamotten'
p3857
I3873
sS'panty'
p3858
I3874
sS'sari'
p3859
I3875
sS'motorbike'
p3860
I3876
sS'gillette'
p3861
I3877
sS'wills'
p3862
I2036
sS'polka'
p3863
I3879
sS'zovi'
p3864
I3880
sS'girgit'
p3865
I3881
sS'applique'
p3866
I3882
sS'hindi'
p3867
I3883
sS'whisper'
p3868
I3884
sS'richards'
p3869
I3778
sS'curtain'
p3870
I3885
sS'feather'
p3871
I3886
sS'absorbent'
p3872
I3887
sS'kolhapuri'
p3873
I3888
sS'universal'
p3874
I3889
sS'somny'
p3875
I1378
sS'remedies'
p3876
I3890
sS'delchi'
p3877
I2104
sS'melamine'
p3878
I3892
sS'penny'
p3879
I3893
sS'controlled'
p3880
I3894
sS'both'
p3881
I2806
sS'apsara'
p3882
I3896
sS'lga'
p3883
I3897
sS'otg'
p3884
I3898
sS'hayabusa'
p3885
I3899
sS'orange'
p3886
I3900
sS'controller'
p3887
I3901
sS'shuttlecock'
p3888
I3902
sS'deep'
p3889
I2703
sS'bull'
p3890
I3608
sS'blazer'
p3891
I2808
sS'general'
p3892
I2439
sS'soulflower'
p3893
I3069
sS'banish'
p3894
I3908
sS'dolphy'
p3895
I2202
sS'homes'
p3896
I3910
sS'multi'
p3897
I3911
sS'plaid'
p3898
I2212
sS'laser'
p3899
I3913
sS'bottels'
p3900
I3914
sS'external'
p3901
I2166
sS'plain'
p3902
I2229
sS'vanilla'
p3903
I3916
sS'aloe'
p3904
I3917
sS'hoody'
p3905
I3858
sS'fila'
p3906
I3918
sS'value'
p3907
I3919
sS'pixel'
p3908
I3501
sS'stunning'
p3909
I3104
sS'rbk'
p3910
I3922
sS'wild'
p3911
I3923
sS'whirlpool'
p3912
I2508
sS'ombre'
p3913
I3925
sS'prokyde'
p3914
I3926
sS'aaboli'
p3915
I3927
sS'layer'
p3916
I181
sS'xpress'
p3917
I2306
sS'motif'
p3918
I3930
sS'omni'
p3919
I3931
sS'freshvillaa'
p3920
I3932
sS'lush'
p3921
I3933
sS'tonic'
p3922
I3934
sS'hubberholme'
p3923
I3084
sS'lust'
p3924
I3936
sS'fitbit'
p3925
I3937
sS'genx'
p3926
I3324
sS'dual'
p3927
I2599
sS'lightweight'
p3928
I2367
sS'ave'
p3929
I3940
sS'convection'
p3930
I3941
sS'laplant'
p3931
I3942
sS'vivekananda'
p3932
I2551
sS'sequinned'
p3933
I3944
sS'moochh'
p3934
I3945
sS'century'
p3935
I2891
sS'grinder'
p3936
I3947
sS'vintage'
p3937
I3948
sS'balloon'
p3938
I3949
sS'radiation'
p3939
I3950
sS'cross'
p3940
I1210
sS'unite'
p3941
I3952
sS'gesture'
p3942
I3725
sS'layered'
p3943
I3954
sS'speaker'
p3944
I3955
sS'tumbler'
p3945
I3956
sS'units'
p3946
I2454
sS'casted'
p3947
I3796
sS'android'
p3948
I3959
sS'inc'
p3949
I4220
sS'balm'
p3950
I3961
sS'practice'
p3951
I2777
sS'raymond'
p3952
I3963
sS'fiesta'
p3953
I3510
sS'drink'
p3954
I3965
sS'skinny'
p3955
I3966
sS'handi'
p3956
I3511
sS'ion'
p3957
I3968
sS'cello'
p3958
I4196
sS'lakshmi'
p3959
I1387
sS'microware'
p3960
I3970
sS'nation'
p3961
I3971
sS'cubix'
p3962
I3972
sS'collar'
p3963
I3973
sS'single'
p3964
I3974
sS'tucker'
p3965
I3975
sS'eprilla'
p3966
I2587
sS'stonic'
p3967
I96
sS'anarkali'
p3968
I3978
sS'mtg'
p3969
I3979
sS'knitco'
p3970
I3980
sS'glamour'
p3971
I3981
sS'builder'
p3972
I2621
sS'well'
p3973
I3983
sS'nutrilite'
p3974
I3984
sS'showpiece'
p3975
I3985
sS'drone'
p3976
I3986
sS'pyjama'
p3977
I3987
sS'english'
p3978
I2666
sS'knotty'
p3979
I3989
sS'trackpant'
p3980
I2677
sS'infocus'
p3981
I3992
sS'drawing'
p3982
I3993
sS'latest'
p3983
I3994
sS'rocker'
p3984
I3995
sS'cruzer'
p3985
I3996
sS'tossido'
p3986
I3997
sS'bestrium'
p3987
I2704
sS'stores'
p3988
I1001
sS'storer'
p3989
I1019
sS'camel'
p3990
I2721
sS'yogi'
p3991
I2125
sS'executive'
p3992
I565
sS'domestic'
p3993
I2733
sS'batteries'
p3994
I2748
sS'homestrap'
p3995
I4006
sS'seats'
p3996
I4007
sS'tough'
p3997
I4008
sS'glue'
p3998
I4009
sS'domestiq'
p3999
I4010
sS'femme'
p4000
I4011
sS'sku'
p4001
I4012
sS'gmi'
p4002
I4013
sS'now'
p4003
I1400
sS'jarl'
p4004
I2805
sS'tight'
p4005
I2128
sS'weightless'
p4006
I4017
sS'supply'
p4007
I1583
sS'sky'
p4008
I1234
sS'studio'
p4009
I4020
sS'microsd'
p4010
I4021
sS'day'
p4011
I2916
sS'ske'
p4012
I2844
sS'battery'
p4013
I2826
sS'nati'
p4014
I4025
sS'book'
p4015
I4230
sS'attractive'
p4016
I4027
sS'ada'
p4017
I720
sS'gms'
p4018
I3793
sS'jars'
p4019
I4030
sS'smart'
p4020
I4032
sS'ski'
p4021
I2876
sS'match'
p4022
I937
sS'knob'
p4023
I1545
sS'sonic'
p4024
I4034
sS'orbit'
p4025
I3191
sS'washed'
p4026
I4035
sS'masters'
p4027
I4037
sS'astro'
p4028
I4174
sS'wendell'
p4029
I4038
sS'denims'
p4030
I3280
sS'solemio'
p4031
I2943
sS'five'
p4032
I4041
sS'know'
p4033
I1889
sS'facial'
p4034
I2951
sS'rajasthan'
p4035
I2952
sS'press'
p4036
I4045
sS'pullover'
p4037
I3494
sS'chhabra'
p4038
I4232
sS'muscle'
p4039
I4049
sS'loss'
p4040
I4050
sS'motorola'
p4041
I2984
sS'breakbounce'
p4042
I4052
sS'lost'
p4043
I4053
sS'panahi'
p4044
I4054
sS'miami'
p4045
I4055
sS'sofa'
p4046
I4056
sS'trimmer'
p4047
I4057
sS'candy'
p4048
I4058
sS'sized'
p4049
I3085
sS'badminton'
p4050
I2831
sS'moringa'
p4051
I4060
sS'stylus'
p4052
I2427
sS'clutch'
p4053
I3086
sS'charminar'
p4054
I4062
sS'leaves'
p4055
I4063
sS'shopsome'
p4056
I375
sS'inspiron'
p4057
I4065
sS'replacement'
p4058
I4066
sS'retractable'
p4059
I4067
sS'keech'
p4060
I4068
sS'gur'
p4061
I2497
sS'cider'
p4062
I4069
sS'prakhya'
p4063
I4070
sS'roti'
p4064
I4059
sS'authority'
p4065
I4071
sS'hair'
p4066
I3117
sS'targus'
p4067
I3123
sS'almonds'
p4068
I4074
sS'export'
p4069
I3129
sS'convex'
p4070
I4076
sS'home'
p4071
I1061
sS'peter'
p4072
I4078
sS'drizzle'
p4073
I4079
sS'gnawlers'
p4074
I1641
sS'nokia'
p4075
I3509
sS'zesture'
p4076
I4081
sS'leaf'
p4077
I3179
sS'kettle'
p4078
I4083
sS'lean'
p4079
I4084
sS'whatshop'
p4080
I3528
sS'floral'
p4081
I3603
sS'detergent'
p4082
I4087
sS'floss'
p4083
I4088
sS'fountain'
p4084
I2504
sS'passion'
p4085
I4090
sS'chainz'
p4086
I4091
sS'shopaholic'
p4087
I4092
sS'apollo'
p4088
I4181
sS'earrings'
p4089
I4093
sS'digitek'
p4090
I4095
sS'leader'
p4091
I3257
sS'platinum'
p4092
I4097
sS'vest'
p4093
I4098
sS'noise'
p4094
I3276
sS'coated'
p4095
I4100
sS'medieval'
p4096
I4101
sS'dci'
p4097
I4102
sS'cheston'
p4098
I2828
sS'fatnile'
p4099
I4104
sS'expansion'
p4100
I4105
sS'sildenafil'
p4101
I3406
sS'pressure'
p4102
I4107
sS'mount'
p4103
I4108
sS'kristie'
p4104
I4109
sS'eurospa'
p4105
I4110
sS'tempered'
p4106
I4111
sS'seagate'
p4107
I4241
sS'science'
p4108
I2350
sS'krz'
p4109
I4113
sS'iris'
p4110
I4114
sS'about'
p4111
I4115
sS'lifestyle'
p4112
I4116
sS'socket'
p4113
I4117
sS'extension'
p4114
I3385
sS'saddle'
p4115
I3389
sS'universe'
p4116
I4120
sS'inizio'
p4117
I3524
sS'shoes'
p4118
I3744
sS'asha'
p4119
I4122
sS'shipping'
p4120
I4123
sS'surge'
p4121
I3655
sS'nynty'
p4122
I3034
sS'carrier'
p4123
I3432
sS'sweat'
p4124
I3825
sS'gainer'
p4125
I4128
sS'puppies'
p4126
I4129
sS'bindani'
p4127
I4130
sS'swimming'
p4128
I3471
sS'warranty'
p4129
I2419
sS'owl'
p4130
I4133
sS'vizio'
p4131
I3478
sS'celebrations'
p4132
I4135
sS'stealodeal'
p4133
I209
sS'healthaid'
p4134
I4137
sS'tag'
p4135
I4138
sS'fck'
p4136
I1609
sS'headphone'
p4137
I4140
sS'cocoa'
p4138
I4141
sS'guard'
p4139
I4143
sS'dvd'
p4140
I3588
sS'champ'
p4141
I4145
sS'brush'
p4142
I4146
sS'female'
p4143
I3651
sS'freeze'
p4144
I4148
sS'bombay'
p4145
I4150
sS'utility'
p4146
I4151
sS'unboxed'
p4147
I4152
sS'chyawanprash'
p4148
I4153
sS'van'
p4149
I4154
sS'elastic'
p4150
I4155
sS'stainless'
p4151
I3593
sS'kuber'
p4152
I4157
sS'spiral'
p4153
I2407
sS'zenfone'
p4154
I4159
sS'imperial'
p4155
I4160
sS'unistuff'
p4156
I2801
sS'bees'
p4157
I4161
sS'actiza'
p4158
I3170
sS'inner'
p4159
I4163
sS'hitcolus'
p4160
I3699
sS'gene'
p4161
I3332
sS'maze'
p4162
I3635
sS'yrs'
p4163
I4165
sS'suzuki'
p4164
I4166
sS'tyre'
p4165
I3827
sS'function'
p4166
I4167
sS'ivory'
p4167
I3665
sS'nourish'
p4168
I1881
sS'north'
p4169
I4170
sS'xperia'
p4170
I4171
sS'bus'
p4171
I4172
sS'brand'
p4172
I4173
sS'volume'
p4173
I1193
sS'ultima'
p4174
I4175
sS'microsdhc'
p4175
I4176
sS'nauti'
p4176
I4177
sS'gain'
p4177
I4178
sS'blacksoul'
p4178
I4179
sS'kameez'
p4179
I3579
sS'ear'
p4180
I894
sS'eau'
p4181
I4182
sS'eat'
p4182
I4183
sS'bblunt'
p4183
I4184
sS'count'
p4184
I4185
sS'made'
p4185
I4186
sS'converter'
p4186
I4187
sS'glory'
p4187
I4188
sS'vsquared'
p4188
I2489
sS'smooth'
p4189
I4190
sS'flip'
p4190
I4191
sS'zapcase'
p4191
I4192
sS'benetton'
p4192
I2098
sS'graphite'
p4193
I2636
sS'containers'
p4194
I3065
sS'hand'
p4195
I770
sS'neckpiece'
p4196
I4197
sS'problem'
p4197
I4198
sS'indore'
p4198
I3845
sS'minutes'
p4199
I4200
sS'display'
p4200
I4201
sS'handloom'
p4201
I940
sS'burberry'
p4202
I4203
sS'hilfiger'
p4203
I3863
sS'parichay'
p4204
I4205
sS'pin'
p4205
I4206
sS'mask'
p4206
I2151
sS'tally'
p4207
I3787
sS'pic'
p4208
I183
sS'maroon'
p4209
I3029
sS'twist'
p4210
I4211
sS'beats'
p4211
I4212
sS'replica'
p4212
I4213
sS'nutricare'
p4213
I4214
sS'barcelona'
p4214
I4215
sS'ink'
p4215
I4216
sS'theatre'
p4216
I1595
sS'shooting'
p4217
I4218
sS'campus'
p4218
I3953
sS'zyaden'
p4219
I3960
sS'hiker'
p4220
I4258
sS'spell'
p4221
I4221
sS'torch'
p4222
I4222
sS'variety'
p4223
I4223
sS'mysore'
p4224
I4224
sS'cashew'
p4225
I3998
sS'boot'
p4226
I818
sS'detail'
p4227
I4227
sS'rrtc'
p4228
I74
sS'oleva'
p4229
I4229
sS'other'
p4230
I4026
sS'mass'
p4231
I2158
sS'acrylic'
p4232
I4048
sS'wing'
p4233
I1618
sS'dresses'
p4234
I4234
sS'dresser'
p4235
I4235
sS'morisons'
p4236
I4236
sS'earbud'
p4237
I4237
sS'chavez'
p4238
I1753
sS'star'
p4239
I4239
sS'casserole'
p4240
I3380
sS'flange'
p4241
I3340
sS'dressberry'
p4242
I1854
sS'zbwin'
p4243
I3946
sS'enlargement'
p4244
I4119
sS'foil'
p4245
I4243
sS'netgear'
p4246
I4244
sS'racquets'
p4247
I3634
sS'naughtiest'
p4248
I4246
sS'aquatouch'
p4249
I3369
sS'badass'
p4250
I4248
sS'enterprises'
p4251
I4249
sS'mats'
p4252
I4250
sS'philips'
p4253
I4251
sS'inlife'
p4254
I4252
sS'samsung'
p4255
I4253
sS'martin'
p4256
I4254
sS'jewel'
p4257
I3127
sS'eon'
p4258
I4256
sS'original'
p4259
I2165
sS'casual'
p4260
I2252
sS'craft'
p4261
I4259
sS'biotechnology'
p4262
I4247
sS'bcr'
p4263
I4261
s.